
qsys_test.elf:     file format elf32-littlenios2
qsys_test.elf
architecture: nios2:r1, flags 0x00000112:
EXEC_P, HAS_SYMS, D_PAGED
start address 0x040201bc

Program Header:
    LOAD off    0x00001000 vaddr 0x04020000 paddr 0x04020000 align 2**12
         filesz 0x00000020 memsz 0x00000020 flags r-x
    LOAD off    0x00001020 vaddr 0x04020020 paddr 0x04020020 align 2**12
         filesz 0x00010558 memsz 0x00010558 flags r-x
    LOAD off    0x00012000 vaddr 0x00000000 paddr 0x04030578 align 2**12
         filesz 0x00001e54 memsz 0x00001fbc flags rw-

Sections:
Idx Name          Size      VMA       LMA       File off  Algn
  0 .entry        00000020  04020000  04020000  00001000  2**5
                  CONTENTS, ALLOC, LOAD, READONLY, CODE
  1 .exceptions   0000019c  04020020  04020020  00001020  2**2
                  CONTENTS, ALLOC, LOAD, READONLY, CODE
  2 .text         000103bc  040201bc  040201bc  000011bc  2**2
                  CONTENTS, ALLOC, LOAD, READONLY, CODE
  3 .rodata       0000034c  00000000  04030578  00012000  2**2
                  CONTENTS, ALLOC, LOAD, READONLY, DATA
  4 .rwdata       00001b08  0000034c  040308c4  0001234c  2**2
                  CONTENTS, ALLOC, LOAD, DATA, SMALL_DATA
  5 .bss          00000168  00001e54  040323cc  00013e54  2**2
                  ALLOC, SMALL_DATA
  6 .sdram        00000000  00001fbc  00001fbc  00013e54  2**0
                  CONTENTS
  7 .onchip_memory2 00000000  040323cc  040323cc  00013e54  2**0
                  CONTENTS
  8 .comment      00000023  00000000  00000000  00013e54  2**0
                  CONTENTS, READONLY
  9 .debug_aranges 00000fa0  00000000  00000000  00013e78  2**3
                  CONTENTS, READONLY, DEBUGGING
 10 .debug_info   00025c23  00000000  00000000  00014e18  2**0
                  CONTENTS, READONLY, DEBUGGING
 11 .debug_abbrev 00009936  00000000  00000000  0003aa3b  2**0
                  CONTENTS, READONLY, DEBUGGING
 12 .debug_line   0000bcb3  00000000  00000000  00044371  2**0
                  CONTENTS, READONLY, DEBUGGING
 13 .debug_frame  00002330  00000000  00000000  00050024  2**2
                  CONTENTS, READONLY, DEBUGGING
 14 .debug_str    0000357e  00000000  00000000  00052354  2**0
                  CONTENTS, READONLY, DEBUGGING
 15 .debug_loc    00016ebd  00000000  00000000  000558d2  2**0
                  CONTENTS, READONLY, DEBUGGING
 16 .debug_alt_sim_info 00000040  00000000  00000000  0006c790  2**2
                  CONTENTS, READONLY, DEBUGGING
 17 .debug_ranges 000018a0  00000000  00000000  0006c7d0  2**3
                  CONTENTS, READONLY, DEBUGGING
 18 .thread_model 00000003  00000000  00000000  0007150c  2**0
                  CONTENTS, READONLY
 19 .cpu          0000000a  00000000  00000000  0007150f  2**0
                  CONTENTS, READONLY
 20 .qsys         00000001  00000000  00000000  00071519  2**0
                  CONTENTS, READONLY
 21 .simulation_enabled 00000001  00000000  00000000  0007151a  2**0
                  CONTENTS, READONLY
 22 .sysid_hash   00000004  00000000  00000000  0007151b  2**0
                  CONTENTS, READONLY
 23 .sysid_base   00000004  00000000  00000000  0007151f  2**0
                  CONTENTS, READONLY
 24 .sysid_time   00000004  00000000  00000000  00071523  2**0
                  CONTENTS, READONLY
 25 .stderr_dev   00000009  00000000  00000000  00071527  2**0
                  CONTENTS, READONLY
 26 .stdin_dev    00000009  00000000  00000000  00071530  2**0
                  CONTENTS, READONLY
 27 .stdout_dev   00000009  00000000  00000000  00071539  2**0
                  CONTENTS, READONLY
 28 .sopc_system_name 0000000c  00000000  00000000  00071542  2**0
                  CONTENTS, READONLY
 29 .quartus_project_dir 00000028  00000000  00000000  0007154e  2**0
                  CONTENTS, READONLY
 30 .sopcinfo     0007cb81  00000000  00000000  00071576  2**0
                  CONTENTS, READONLY
SYMBOL TABLE:
04020000 l    d  .entry	00000000 .entry
04020020 l    d  .exceptions	00000000 .exceptions
040201bc l    d  .text	00000000 .text
00000000 l    d  .rodata	00000000 .rodata
0000034c l    d  .rwdata	00000000 .rwdata
00001e54 l    d  .bss	00000000 .bss
00001fbc l    d  .sdram	00000000 .sdram
040323cc l    d  .onchip_memory2	00000000 .onchip_memory2
00000000 l    d  .comment	00000000 .comment
00000000 l    d  .debug_aranges	00000000 .debug_aranges
00000000 l    d  .debug_info	00000000 .debug_info
00000000 l    d  .debug_abbrev	00000000 .debug_abbrev
00000000 l    d  .debug_line	00000000 .debug_line
00000000 l    d  .debug_frame	00000000 .debug_frame
00000000 l    d  .debug_str	00000000 .debug_str
00000000 l    d  .debug_loc	00000000 .debug_loc
00000000 l    d  .debug_alt_sim_info	00000000 .debug_alt_sim_info
00000000 l    d  .debug_ranges	00000000 .debug_ranges
00000000 l    df *ABS*	00000000 ../qsys_test_bsp//obj/HAL/src/crt0.o
040201f4 l       .text	00000000 alt_after_alt_main
00000000 l    df *ABS*	00000000 alt_exception_entry.o
04020094 l       .exceptions	00000000 alt_exception_unknown
00000000 l    df *ABS*	00000000 alt_irq_handler.c
00000000 l    df *ABS*	00000000 main.c
040201f8 l     F .text	00000270 recordAudio
04020468 l     F .text	0000014c playAudio
040205b4 l     F .text	00000068 playIsr
0402061c l     F .text	00000068 recordIsr
04020684 l     F .text	000000f8 syncIsr
00000000 l    df *ABS*	00000000 mem_verify.c
00000000 l    df *ABS*	00000000 lib2-divmod.c
04020fe0 l     F .text	0000006c udivmodsi4
00000000 l    df *ABS*	00000000 lib2-mul.c
00000000 l    df *ABS*	00000000 memcpy.c
00000000 l    df *ABS*	00000000 printf.c
00000000 l    df *ABS*	00000000 putchar.c
00000000 l    df *ABS*	00000000 puts.c
00000000 l    df *ABS*	00000000 rand.c
00000000 l    df *ABS*	00000000 strlen.c
00000000 l    df *ABS*	00000000 vfprintf.c
0000009a l     O .rodata	00000010 zeroes.4255
04023540 l     F .text	000000bc __sbprintf
000000aa l     O .rodata	00000010 blanks.4254
00000000 l    df *ABS*	00000000 wsetup.c
00000000 l    df *ABS*	00000000 dtoa.c
04023750 l     F .text	00000228 quorem
00000000 l    df *ABS*	00000000 fflush.c
00000000 l    df *ABS*	00000000 findfp.c
04025334 l     F .text	00000008 __fp_lock
0402533c l     F .text	00000008 __fp_unlock
04025350 l     F .text	0000019c __sinit.part.1
00000000 l    df *ABS*	00000000 mallocr.c
00000000 l    df *ABS*	00000000 fvwrite.c
00000000 l    df *ABS*	00000000 fwalk.c
00000000 l    df *ABS*	00000000 impure.c
0000034c l     O .rwdata	00000424 impure_data
00000000 l    df *ABS*	00000000 locale.c
00000790 l     O .rwdata	00000020 lc_ctype_charset
00000770 l     O .rwdata	00000020 lc_message_charset
000007b0 l     O .rwdata	00000038 lconv
00000000 l    df *ABS*	00000000 makebuf.c
00000000 l    df *ABS*	00000000 mallocr.c
00000000 l    df *ABS*	00000000 memchr.c
00000000 l    df *ABS*	00000000 memmove.c
00000000 l    df *ABS*	00000000 memset.c
00000000 l    df *ABS*	00000000 mprec.c
000000dc l     O .rodata	0000000c p05.2710
00000000 l    df *ABS*	00000000 putc.c
00000000 l    df *ABS*	00000000 mallocr.c
00000000 l    df *ABS*	00000000 s_fpclassify.c
00000000 l    df *ABS*	00000000 sbrkr.c
00000000 l    df *ABS*	00000000 stdio.c
00000000 l    df *ABS*	00000000 strcmp.c
00000000 l    df *ABS*	00000000 vfprintf.c
040288cc l     F .text	000000fc __sprint_r.part.0
00000200 l     O .rodata	00000010 zeroes.4200
00000210 l     O .rodata	00000010 blanks.4199
04029cf4 l     F .text	000000bc __sbprintf
00000000 l    df *ABS*	00000000 wbuf.c
00000000 l    df *ABS*	00000000 writer.c
00000000 l    df *ABS*	00000000 closer.c
00000000 l    df *ABS*	00000000 mallocr.c
00000000 l    df *ABS*	00000000 fclose.c
00000000 l    df *ABS*	00000000 fputwc.c
00000000 l    df *ABS*	00000000 fstatr.c
00000000 l    df *ABS*	00000000 int_errno.c
00000000 l    df *ABS*	00000000 isattyr.c
00000000 l    df *ABS*	00000000 lseekr.c
00000000 l    df *ABS*	00000000 readr.c
00000000 l    df *ABS*	00000000 wcrtomb.c
00000000 l    df *ABS*	00000000 wctomb_r.c
00000000 l    df *ABS*	00000000 libgcc2.c
00000000 l    df *ABS*	00000000 libgcc2.c
00000000 l    df *ABS*	00000000 libgcc2.c
00000000 l    df *ABS*	00000000 adddf3.c
00000000 l    df *ABS*	00000000 divdf3.c
00000000 l    df *ABS*	00000000 eqdf2.c
00000000 l    df *ABS*	00000000 gedf2.c
00000000 l    df *ABS*	00000000 ledf2.c
00000000 l    df *ABS*	00000000 muldf3.c
00000000 l    df *ABS*	00000000 subdf3.c
00000000 l    df *ABS*	00000000 fixdfsi.c
00000000 l    df *ABS*	00000000 floatsidf.c
00000000 l    df *ABS*	00000000 floatunsidf.c
00000000 l    df *ABS*	00000000 libgcc2.c
00000000 l    df *ABS*	00000000 libgcc2.c
00000000 l    df *ABS*	00000000 alt_close.c
0402dc20 l     F .text	00000050 alt_get_errno
00000000 l    df *ABS*	00000000 alt_dcache_flush_all.c
00000000 l    df *ABS*	00000000 alt_dev.c
0402dd64 l     F .text	0000002c alt_dev_null_write
00000000 l    df *ABS*	00000000 alt_errno.c
00000000 l    df *ABS*	00000000 alt_fstat.c
0402dd90 l     F .text	00000050 alt_get_errno
00000000 l    df *ABS*	00000000 alt_iic.c
00000000 l    df *ABS*	00000000 alt_iic_isr_register.c
00000000 l    df *ABS*	00000000 alt_irq_vars.c
00000000 l    df *ABS*	00000000 alt_isatty.c
0402e168 l     F .text	00000050 alt_get_errno
00000000 l    df *ABS*	00000000 alt_load.c
0402e264 l     F .text	00000064 alt_load_section
00000000 l    df *ABS*	00000000 alt_lseek.c
0402e348 l     F .text	00000050 alt_get_errno
00000000 l    df *ABS*	00000000 alt_main.c
00000000 l    df *ABS*	00000000 alt_malloc_lock.c
00000000 l    df *ABS*	00000000 alt_read.c
0402e52c l     F .text	00000050 alt_get_errno
00000000 l    df *ABS*	00000000 alt_release_fd.c
00000000 l    df *ABS*	00000000 alt_sbrk.c
00001e48 l     O .rwdata	00000004 heap_end
00000000 l    df *ABS*	00000000 alt_tick.c
00000000 l    df *ABS*	00000000 alt_usleep.c
00000000 l    df *ABS*	00000000 alt_write.c
0402e97c l     F .text	00000050 alt_get_errno
00000000 l    df *ABS*	00000000 alt_sys_init.c
0402eacc l     F .text	00000038 alt_dev_reg
00000d98 l     O .rwdata	00001060 jtag_uart
00000000 l    df *ABS*	00000000 altera_avalon_jtag_uart_fd.c
00000000 l    df *ABS*	00000000 altera_avalon_jtag_uart_init.c
0402edc0 l     F .text	00000204 altera_avalon_jtag_uart_irq
0402efc4 l     F .text	000000a8 altera_avalon_jtag_uart_timeout
00000000 l    df *ABS*	00000000 altera_avalon_jtag_uart_ioctl.c
00000000 l    df *ABS*	00000000 altera_avalon_jtag_uart_read.c
00000000 l    df *ABS*	00000000 altera_avalon_jtag_uart_write.c
00000000 l    df *ABS*	00000000 altera_avalon_timer_sc.c
0402f5e4 l     F .text	00000074 alt_avalon_timer_sc_irq
00000000 l    df *ABS*	00000000 alt_alarm_start.c
00000000 l    df *ABS*	00000000 alt_busy_sleep.c
00000000 l    df *ABS*	00000000 alt_dev_llist_insert.c
0402f978 l     F .text	00000050 alt_get_errno
00000000 l    df *ABS*	00000000 alt_do_ctors.c
00000000 l    df *ABS*	00000000 alt_do_dtors.c
00000000 l    df *ABS*	00000000 alt_icache_flush_all.c
00000000 l    df *ABS*	00000000 alt_io_redirect.c
0402fb40 l     F .text	000000e0 alt_open_fd
00000000 l    df *ABS*	00000000 alt_open.c
0402fc98 l     F .text	00000050 alt_get_errno
0402fce8 l     F .text	000000f4 alt_file_locked
00000000 l    df *ABS*	00000000 altera_nios2_qsys_irq.c
00000000 l    df *ABS*	00000000 alt_find_dev.c
00000000 l    df *ABS*	00000000 alt_find_file.c
00000000 l    df *ABS*	00000000 alt_get_fd.c
00000000 l    df *ABS*	00000000 atexit.c
00000000 l    df *ABS*	00000000 exit.c
00000000 l    df *ABS*	00000000 memcmp.c
00000000 l    df *ABS*	00000000 __atexit.c
00000000 l    df *ABS*	00000000 __call_atexit.c
00000000 l    df *ABS*	00000000 alt_exit.c
040212dc g     F .text	00000018 putchar
04027dd8 g     F .text	00000074 _mprec_log10
04027ec4 g     F .text	0000008c __any_on
0402a3c8 g     F .text	00000054 _isatty_r
000000e8 g     O .rodata	00000028 __mprec_tinytens
0402e474 g     F .text	00000078 alt_main
040212f4 g     F .text	000000a8 _puts_r
00001ebc g     O .bss	00000100 alt_irq
0402a41c g     F .text	0000005c _lseek_r
040308c4 g       *ABS*	00000000 __flash_rwdata_start
0402c640 g     F .text	00000084 .hidden __eqdf2
00001fbc g       *ABS*	00000000 __alt_heap_start
00001dfc g     O .rwdata	00000004 record_btn_ptr
04021298 g     F .text	0000003c printf
0402a4d4 g     F .text	0000009c _wcrtomb_r
040287c4 g     F .text	0000005c __sseek
04025694 g     F .text	00000010 __sinit
04029db0 g     F .text	00000138 __swbuf_r
0402614c g     F .text	0000007c _setlocale_r
040254ec g     F .text	00000078 __sfmoreglue
0402e50c g     F .text	00000020 __malloc_unlock
04026c74 g     F .text	0000015c memmove
0402567c g     F .text	00000018 _cleanup
04026ef4 g     F .text	000000a8 _Balloc
0402c6c4 g     F .text	000000e0 .hidden __gtdf2
00000000  w      *UND*	00000000 __errno
04020000 g     F .entry	0000000c __reset
00001e5c g     O .bss	00000004 edge_capture
04020020 g       *ABS*	00000000 __flash_exceptions_start
0402a370 g     F .text	00000058 _fstat_r
00001e78 g     O .bss	00000004 errno
04028740 g     F .text	00000008 __seofread
00001e84 g     O .bss	00000004 alt_argv
00009df8 g       *ABS*	00000000 _gp
0402e94c g     F .text	00000030 usleep
00000c18 g     O .rwdata	00000180 alt_fd_list
040212d4 g     F .text	00000008 _putchar_r
0402ff5c g     F .text	00000090 alt_find_dev
04021134 g     F .text	00000138 memcpy
04020888 g     F .text	00000510 TMEM_Verify
04025344 g     F .text	0000000c _cleanup_r
0402da48 g     F .text	000000d0 .hidden __floatsidf
00001e04 g     O .rwdata	00000004 sdram_base_ptr
0402fc20 g     F .text	00000078 alt_io_redirect
0402c7a4 g     F .text	000000e0 .hidden __ltdf2
04030578 g       *ABS*	00000000 __DTOR_END__
0402139c g     F .text	00000014 puts
04028624 g     F .text	00000074 __fpclassifyd
04027d34 g     F .text	000000a4 __ratio
04029cd0 g     F .text	00000024 __vfiprintf_internal
0402f1c0 g     F .text	0000020c altera_avalon_jtag_uart_read
00000000  w      *UND*	00000000 malloc
0402126c g     F .text	0000002c _printf_r
040210fc g     F .text	00000008 .hidden __udivsi3
0402e1b8 g     F .text	000000ac isatty
00001e58 g     O .bss	00000004 currentState
00000138 g     O .rodata	000000c8 __mprec_tens
040261c8 g     F .text	0000000c __locale_charset
00001e74 g     O .bss	00000004 __malloc_top_pad
00001e1c g     O .rwdata	00000004 __mb_cur_max
040261f8 g     F .text	0000000c _localeconv_r
04027328 g     F .text	0000003c __i2b
04025af8 g     F .text	000004cc __sfvwrite_r
04028698 g     F .text	00000054 _sbrk_r
0402a478 g     F .text	0000005c _read_r
00001e3c g     O .rwdata	00000004 alt_max_fd
0402a08c g     F .text	000000f0 _fclose_r
04025304 g     F .text	00000030 fflush
00001e70 g     O .bss	00000004 __malloc_max_sbrked_mem
0402b424 g     F .text	0000089c .hidden __adddf3
04027adc g     F .text	0000011c __b2d
0402ae08 g     F .text	0000061c .hidden __umoddi3
0402e398 g     F .text	000000dc lseek
00001e14 g     O .rwdata	00000004 _global_impure_ptr
040280bc g     F .text	00000568 _realloc_r
00001fbc g       *ABS*	00000000 __bss_end
0402e078 g     F .text	000000f0 alt_iic_isr_register
0402e848 g     F .text	00000104 alt_tick
0402a7c8 g     F .text	00000640 .hidden __udivdi3
0402a190 g     F .text	00000184 _fputwc_r
00000110 g     O .rodata	00000028 __mprec_bigtens
0402710c g     F .text	00000104 __s2b
0402db18 g     F .text	000000a4 .hidden __floatunsidf
04027884 g     F .text	00000060 __mcmp
040256b4 g     F .text	00000018 __fp_lock_all
0402e02c g     F .text	0000004c alt_ic_irq_enabled
0402e7b0 g     F .text	00000098 alt_alarm_stop
00001e7c g     O .bss	00000004 alt_irq_active
040200ec g     F .exceptions	000000d0 alt_irq_handler
00000bf0 g     O .rwdata	00000028 alt_dev_null
0402dd48 g     F .text	0000001c alt_dcache_flush_all
04027210 g     F .text	00000068 __hi0bits
0402d9c0 g     F .text	00000088 .hidden __fixdfsi
00001e54 g       *ABS*	00000000 __ram_rwdata_end
00001e34 g     O .rwdata	00000008 alt_dev_list
0402e9cc g     F .text	00000100 write
04027f50 g     F .text	000000a0 _putc_r
0000034c g       *ABS*	00000000 __ram_rodata_end
0402dde0 g     F .text	000000b8 fstat
0402c7a4 g     F .text	000000e0 .hidden __ledf2
040275f4 g     F .text	00000140 __pow5mult
040289e0 g     F .text	000012f0 ___vfiprintf_internal_r
00001e68 g     O .bss	00000004 __nlocale_changed
04021104 g     F .text	00000008 .hidden __umodsi3
00001e08 g     O .rwdata	00000004 sdram_max_ptr
00001fbc g       *ABS*	00000000 end
00001e00 g     O .rwdata	00000004 sync_ptr
0402ecfc g     F .text	000000c4 altera_avalon_jtag_uart_init
04030578 g       *ABS*	00000000 __CTOR_LIST__
04000000 g       *ABS*	00000000 __alt_stack_pointer
0402f658 g     F .text	00000088 alt_avalon_timer_sc_init
0402dbbc g     F .text	00000064 .hidden __clzsi2
0402f3cc g     F .text	00000218 altera_avalon_jtag_uart_write
040256a4 g     F .text	00000004 __sfp_lock_acquire
04026b8c g     F .text	000000e8 memchr
040214c4 g     F .text	00002058 ___vfprintf_internal_r
04025808 g     F .text	000002f0 _free_r
040261d4 g     F .text	00000010 __locale_mb_cur_max
040303b0 g     F .text	00000194 __call_exitprocs
00001e64 g     O .bss	00000004 __mlocale_changed
00001e20 g     O .rwdata	00000004 __malloc_sbrk_base
040201bc g     F .text	0000003c _start
00001e8c g     O .bss	00000004 _alt_tick_rate
040213c8 g     F .text	00000064 rand
04027734 g     F .text	00000150 __lshift
00001e90 g     O .bss	00000004 _alt_nticks
0402e57c g     F .text	00000104 read
0402eb38 g     F .text	00000060 alt_sys_init
0403029c g     F .text	00000114 __register_exitproc
04027364 g     F .text	00000290 __multiply
0402f06c g     F .text	00000068 altera_avalon_jtag_uart_close
0402110c g     F .text	00000028 .hidden __mulsi3
0000034c g       *ABS*	00000000 __ram_rwdata_start
00000000 g       *ABS*	00000000 __ram_rodata_start
00001e94 g     O .bss	00000028 __malloc_current_mallinfo
04027bf8 g     F .text	0000013c __d2b
0402eb98 g     F .text	00000060 altera_avalon_jtag_uart_read_fd
04030100 g     F .text	000000d4 alt_get_fd
0402f820 g     F .text	00000158 alt_busy_sleep
04029f60 g     F .text	00000054 _close_r
04030220 g     F .text	0000007c memcmp
0402ec58 g     F .text	00000050 altera_avalon_jtag_uart_close_fd
00001fbc g       *ABS*	00000000 __alt_stack_base
0402eca8 g     F .text	00000054 altera_avalon_jtag_uart_ioctl_fd
040235fc g     F .text	00000154 __swsetup_r
0402bcc0 g     F .text	00000980 .hidden __divdf3
04025564 g     F .text	00000118 __sfp
04027e4c g     F .text	00000078 __copybits
000007e8 g     O .rwdata	00000408 __malloc_av_
040256b0 g     F .text	00000004 __sinit_lock_release
0402c884 g     F .text	0000086c .hidden __muldf3
040286ec g     F .text	00000054 __sread
0402ffec g     F .text	00000114 alt_find_file
0402f9c8 g     F .text	000000a4 alt_dev_llist_insert
0402e4ec g     F .text	00000020 __malloc_lock
0402e700 g     F .text	000000b0 sbrk
040252a8 g     F .text	0000005c _fflush_r
04029fb4 g     F .text	000000d8 _calloc_r
00001df8 g     O .rwdata	00000004 play_btn_ptr
00001e54 g       *ABS*	00000000 __bss_start
04026dd0 g     F .text	00000124 memset
0402077c g     F .text	0000010c main
00001e88 g     O .bss	00000004 alt_envp
00001e6c g     O .bss	00000004 __malloc_max_total_mem
0402ebf8 g     F .text	00000060 altera_avalon_jtag_uart_write_fd
04029ee8 g     F .text	0000001c __swbuf
040213b0 g     F .text	00000018 srand
04028820 g     F .text	00000008 __sclose
04000000 g       *ABS*	00000000 __alt_heap_limit
0402a17c g     F .text	00000014 fclose
04023978 g     F .text	00001728 _dtoa_r
040263e4 g     F .text	000007a8 _malloc_r
0402a630 g     F .text	00000030 __ascii_wctomb
00001e40 g     O .rwdata	00000004 alt_errno
04025fc4 g     F .text	000000c4 _fwalk
04027ff0 g     F .text	000000cc putc
0402104c g     F .text	00000054 .hidden __divsi3
040256e4 g     F .text	00000124 _malloc_trim_r
04030578 g       *ABS*	00000000 __CTOR_END__
04028828 g     F .text	000000a4 strcmp
04030578 g       *ABS*	00000000 __flash_rodata_start
04030578 g       *ABS*	00000000 __DTOR_LIST__
0402c640 g     F .text	00000084 .hidden __nedf2
0402eb04 g     F .text	00000034 alt_irq_init
0402e680 g     F .text	00000080 alt_release_fd
00000220 g     O .rodata	00000100 .hidden __clz_tab
00001e60 g     O .bss	00000004 _PathLocale
040301d4 g     F .text	00000014 atexit
04029f04 g     F .text	0000005c _write_r
04026204 g     F .text	0000001c setlocale
00001e18 g     O .rwdata	00000004 _impure_ptr
00001e80 g     O .bss	00000004 alt_argc
040250a0 g     F .text	00000208 __sflush_r
0402fac8 g     F .text	0000005c _do_dtors
040261f0 g     F .text	00000008 __locale_cjk_lang
04020020 g       .exceptions	00000000 alt_irq_entry
04027a7c g     F .text	00000060 __ulp
040256cc g     F .text	00000018 __fp_unlock_all
00001e2c g     O .rwdata	00000008 alt_fs_list
04020020 g       *ABS*	00000000 __ram_exceptions_start
04026220 g     F .text	0000000c localeconv
04020000 g       *ABS*	00000000 __alt_mem_onchip_memory2
0402de98 g     F .text	00000050 alt_ic_isr_register
00001e54 g       *ABS*	00000000 _edata
00001fbc g       *ABS*	00000000 _end
040201bc g       *ABS*	00000000 __ram_exceptions_end
0402f0d4 g     F .text	000000ec altera_avalon_jtag_uart_ioctl
0402df88 g     F .text	000000a4 alt_ic_irq_disable
04028748 g     F .text	0000007c __swrite
00001e24 g     O .rwdata	00000004 __malloc_trim_threshold
0402ff3c g     F .text	00000020 altera_nios2_qsys_irq_init
040261e4 g     F .text	0000000c __locale_msgcharset
040301e8 g     F .text	00000038 exit
04026088 g     F .text	000000c4 _fwalk_reent
040278e4 g     F .text	00000198 __mdiff
040210a0 g     F .text	0000005c .hidden __modsi3
04020d98 g     F .text	00000248 TMEM_QuickVerify
04000000 g       *ABS*	00000000 __alt_data_end
04020020 g     F .exceptions	00000000 alt_exception
040256a8 g     F .text	00000004 __sfp_lock_release
00000000 g       *ABS*	00000000 __alt_mem_sdram
04030544 g     F .text	00000034 _exit
0402f6e0 g     F .text	00000140 alt_alarm_start
0402a6bc g     F .text	0000010c .hidden __muldi3
0402622c g     F .text	000001b8 __smakebuf_r
00001e10 g     O .rwdata	00000004 data_out_ptr
0402142c g     F .text	00000098 strlen
0402fddc g     F .text	00000160 open
0402c6c4 g     F .text	000000e0 .hidden __gedf2
00001e28 g     O .rwdata	00000004 __wctomb
040289c8 g     F .text	00000018 __sprint_r
0402fb24 g     F .text	0000001c alt_icache_flush_all
00001e44 g     O .rwdata	00000004 alt_priority_mask
0402dee8 g     F .text	000000a0 alt_ic_irq_enable
0402351c g     F .text	00000024 __vfprintf_internal
0402a660 g     F .text	0000005c _wctomb_r
0402d0f0 g     F .text	000008d0 .hidden __subdf3
00001e0c g     O .rwdata	00000004 data_in_ptr
04027278 g     F .text	000000b0 __lo0bits
00001e4c g     O .rwdata	00000008 alt_alarm_list
0402fa6c g     F .text	0000005c _do_ctors
0402a570 g     F .text	000000c0 wcrtomb
0402dc70 g     F .text	000000d8 close
0402e2c8 g     F .text	00000080 alt_load
0402a314 g     F .text	0000005c fputwc
00000000  w      *UND*	00000000 free
040256ac g     F .text	00000004 __sinit_lock_acquire
00001e54 g     O .bss	00000004 sdram_current_ptr
04026fc4 g     F .text	00000148 __multadd
04026f9c g     F .text	00000028 _Bfree



Disassembly of section .entry:

04020000 <__reset>:
 * Jump to the _start entry point in the .text section if reset code
 * is allowed or if optimizing for RTL simulation.
 */
#if defined(ALT_ALLOW_CODE_AT_RESET) || defined(ALT_SIM_OPTIMIZE)
    /* Jump to the _start entry point in the .text section. */
    movhi r1, %hi(_start)
 4020000:	004100b4 	movhi	at,1026
    ori r1, r1, %lo(_start)
 4020004:	08406f14 	ori	at,at,444
    jmp r1
 4020008:	0800683a 	jmp	at
	...

Disassembly of section .exceptions:

04020020 <alt_exception>:

#else /* ALT_EXCEPTION_STACK disabled */
        /* 
         * Reserve space on normal stack for registers about to be pushed.
         */
        addi  sp, sp, -76
 4020020:	deffed04 	addi	sp,sp,-76
         * documentation for details).
         *
         * Leave a gap in the stack frame at 4(sp) for the muldiv handler to
         * store zero into.
         */
        stw   ra,  0(sp)
 4020024:	dfc00015 	stw	ra,0(sp)
        stw   r1,   8(sp)
 4020028:	d8400215 	stw	at,8(sp)
        stw   r2,  12(sp)
 402002c:	d8800315 	stw	r2,12(sp)
        stw   r3,  16(sp)
 4020030:	d8c00415 	stw	r3,16(sp)
        stw   r4,  20(sp)
 4020034:	d9000515 	stw	r4,20(sp)
        stw   r5,  24(sp)
 4020038:	d9400615 	stw	r5,24(sp)
        stw   r6,  28(sp)
 402003c:	d9800715 	stw	r6,28(sp)
        stw   r7,  32(sp)
 4020040:	d9c00815 	stw	r7,32(sp)
        rdctl r5, estatus   /* Read early to avoid usage stall */
 4020044:	000b307a 	rdctl	r5,estatus
        stw   r8,  36(sp)
 4020048:	da000915 	stw	r8,36(sp)
        stw   r9,  40(sp)
 402004c:	da400a15 	stw	r9,40(sp)
        stw   r10, 44(sp)
 4020050:	da800b15 	stw	r10,44(sp)
        stw   r11, 48(sp)
 4020054:	dac00c15 	stw	r11,48(sp)
        stw   r12, 52(sp)
 4020058:	db000d15 	stw	r12,52(sp)
        stw   r13, 56(sp)
 402005c:	db400e15 	stw	r13,56(sp)
        stw   r14, 60(sp)
 4020060:	db800f15 	stw	r14,60(sp)
        stw   r15, 64(sp)
 4020064:	dbc01015 	stw	r15,64(sp)
        /*
         * ea-4 contains the address of the instruction being executed
         * when the exception occured. For interrupt exceptions, we will
         * will be re-issue the isntruction. Store it in 72(sp)
         */
        stw   r5,  68(sp)  /* estatus */
 4020068:	d9401115 	stw	r5,68(sp)
        addi  r15, ea, -4  /* instruction that caused exception */
 402006c:	ebffff04 	addi	r15,ea,-4
        stw   r15,  72(sp)
 4020070:	dbc01215 	stw	r15,72(sp)
#else
        /*
         * Test to see if the exception was a software exception or caused 
         * by an external interrupt, and vector accordingly.
         */
        rdctl r4, ipending
 4020074:	0009313a 	rdctl	r4,ipending
        andi  r2, r5, 1
 4020078:	2880004c 	andi	r2,r5,1
        beq   r2, zero, .Lnot_irq
 402007c:	10000326 	beq	r2,zero,402008c <alt_exception+0x6c>
        beq   r4, zero, .Lnot_irq
 4020080:	20000226 	beq	r4,zero,402008c <alt_exception+0x6c>
        /*
         * Now that all necessary registers have been preserved, call 
         * alt_irq_handler() to process the interrupts.
         */

        call alt_irq_handler
 4020084:	40200ec0 	call	40200ec <alt_irq_handler>

        .section .exceptions.irqreturn, "xa"

        br    .Lexception_exit
 4020088:	00000306 	br	4020098 <alt_exception_unknown+0x4>
         * upon completion, so we write ea (address of instruction *after*
         * the one where the exception occured) into 72(sp). The actual
         * instruction that caused the exception is written in r2, which these
         * handlers will utilize.
         */
        stw   ea,  72(sp)  /* Don't re-issue */
 402008c:	df401215 	stw	ea,72(sp)
        ldw   r2, -4(ea)   /* Instruction that caused exception */
 4020090:	e8bfff17 	ldw	r2,-4(ea)

04020094 <alt_exception_unknown>:
#ifdef NIOS2_HAS_DEBUG_STUB
       /*
        *  Either tell the user now (if there is a debugger attached) or go into
        *  the debug monitor which will loop until a debugger is attached.
        */
        break
 4020094:	003da03a 	break	0
        /* 
         * Restore the saved registers, so that all general purpose registers 
         * have been restored to their state at the time the interrupt occured.
         */

        ldw   r5,  68(sp)
 4020098:	d9401117 	ldw	r5,68(sp)
        ldw   ea,  72(sp)  /* This becomes the PC once eret is executed */
 402009c:	df401217 	ldw	ea,72(sp)
        ldw   ra,   0(sp)
 40200a0:	dfc00017 	ldw	ra,0(sp)

        wrctl estatus, r5
 40200a4:	2801707a 	wrctl	estatus,r5

        ldw   r1,   8(sp)
 40200a8:	d8400217 	ldw	at,8(sp)
        ldw   r2,  12(sp)
 40200ac:	d8800317 	ldw	r2,12(sp)
        ldw   r3,  16(sp)
 40200b0:	d8c00417 	ldw	r3,16(sp)
        ldw   r4,  20(sp)
 40200b4:	d9000517 	ldw	r4,20(sp)
        ldw   r5,  24(sp)
 40200b8:	d9400617 	ldw	r5,24(sp)
        ldw   r6,  28(sp)
 40200bc:	d9800717 	ldw	r6,28(sp)
        ldw   r7,  32(sp)
 40200c0:	d9c00817 	ldw	r7,32(sp)

#if defined(ALT_EXCEPTION_STACK) && defined(ALT_STACK_CHECK)
        ldw   et, %gprel(alt_exception_old_stack_limit)(gp)
#endif

        ldw   r8,  36(sp)
 40200c4:	da000917 	ldw	r8,36(sp)
        ldw   r9,  40(sp)
 40200c8:	da400a17 	ldw	r9,40(sp)
        ldw   r10, 44(sp)
 40200cc:	da800b17 	ldw	r10,44(sp)
        ldw   r11, 48(sp)
 40200d0:	dac00c17 	ldw	r11,48(sp)
        ldw   r12, 52(sp)
 40200d4:	db000d17 	ldw	r12,52(sp)
        ldw   r13, 56(sp)
 40200d8:	db400e17 	ldw	r13,56(sp)
        ldw   r14, 60(sp)
 40200dc:	db800f17 	ldw	r14,60(sp)
        ldw   r15, 64(sp)
 40200e0:	dbc01017 	ldw	r15,64(sp)
        stw   et, %gprel(alt_stack_limit_value)(gp)
        stw   zero, %gprel(alt_exception_old_stack_limit)(gp)
#endif /* ALT_STACK_CHECK */
        ldw   sp,  76(sp)
#else /* ALT_EXCEPTION_STACK disabled */
        addi  sp, sp, 76
 40200e4:	dec01304 	addi	sp,sp,76

        /*
         * Return to the interrupted instruction.
         */

        eret
 40200e8:	ef80083a 	eret

040200ec <alt_irq_handler>:
 * instruction is present if the macro ALT_CI_INTERRUPT_VECTOR defined.
 */

void alt_irq_handler (void) __attribute__ ((section (".exceptions")));
void alt_irq_handler (void)
{
 40200ec:	defff904 	addi	sp,sp,-28
 40200f0:	dfc00615 	stw	ra,24(sp)
 40200f4:	df000515 	stw	fp,20(sp)
 40200f8:	df000504 	addi	fp,sp,20
  
  /*
   * Notify the operating system that we are at interrupt level.
   */ 
  
  ALT_OS_INT_ENTER();
 40200fc:	0001883a 	nop
#ifndef NIOS2_EIC_PRESENT
static ALT_INLINE alt_u32 ALT_ALWAYS_INLINE alt_irq_pending (void)
{
  alt_u32 active;

  NIOS2_READ_IPENDING (active);
 4020100:	0005313a 	rdctl	r2,ipending
 4020104:	e0bffe15 	stw	r2,-8(fp)

  return active;
 4020108:	e0bffe17 	ldw	r2,-8(fp)
   * Consider the case where the high priority interupt is asserted during
   * the interrupt entry sequence for a lower priority interrupt to see why
   * this is the case.
   */

  active = alt_irq_pending ();
 402010c:	e0bffb15 	stw	r2,-20(fp)

  do
  {
    i = 0;
 4020110:	e03ffd15 	stw	zero,-12(fp)
    mask = 1;
 4020114:	00800044 	movi	r2,1
 4020118:	e0bffc15 	stw	r2,-16(fp)
     * called to clear the interrupt condition.
     */

    do
    {
      if (active & mask)
 402011c:	e0fffb17 	ldw	r3,-20(fp)
 4020120:	e0bffc17 	ldw	r2,-16(fp)
 4020124:	1884703a 	and	r2,r3,r2
 4020128:	10001426 	beq	r2,zero,402017c <alt_irq_handler+0x90>
      { 
#ifdef ALT_ENHANCED_INTERRUPT_API_PRESENT
        alt_irq[i].handler(alt_irq[i].context); 
 402012c:	00800034 	movhi	r2,0
 4020130:	1087af04 	addi	r2,r2,7868
 4020134:	e0fffd17 	ldw	r3,-12(fp)
 4020138:	180690fa 	slli	r3,r3,3
 402013c:	10c5883a 	add	r2,r2,r3
 4020140:	10c00017 	ldw	r3,0(r2)
 4020144:	00800034 	movhi	r2,0
 4020148:	1087af04 	addi	r2,r2,7868
 402014c:	e13ffd17 	ldw	r4,-12(fp)
 4020150:	200890fa 	slli	r4,r4,3
 4020154:	21000104 	addi	r4,r4,4
 4020158:	1105883a 	add	r2,r2,r4
 402015c:	10800017 	ldw	r2,0(r2)
 4020160:	1009883a 	mov	r4,r2
 4020164:	183ee83a 	callr	r3
#else
        alt_irq[i].handler(alt_irq[i].context, i); 
#endif
        break;
 4020168:	0001883a 	nop
#ifndef NIOS2_EIC_PRESENT
static ALT_INLINE alt_u32 ALT_ALWAYS_INLINE alt_irq_pending (void)
{
  alt_u32 active;

  NIOS2_READ_IPENDING (active);
 402016c:	0005313a 	rdctl	r2,ipending
 4020170:	e0bfff15 	stw	r2,-4(fp)

  return active;
 4020174:	e0bfff17 	ldw	r2,-4(fp)
 4020178:	00000706 	br	4020198 <alt_irq_handler+0xac>
      }
      mask <<= 1;
 402017c:	e0bffc17 	ldw	r2,-16(fp)
 4020180:	1085883a 	add	r2,r2,r2
 4020184:	e0bffc15 	stw	r2,-16(fp)
      i++;
 4020188:	e0bffd17 	ldw	r2,-12(fp)
 402018c:	10800044 	addi	r2,r2,1
 4020190:	e0bffd15 	stw	r2,-12(fp)

    } while (1);
 4020194:	003fe106 	br	402011c <__flash_rwdata_start+0xfffef858>

    active = alt_irq_pending ();
 4020198:	e0bffb15 	stw	r2,-20(fp)
    
  } while (active);
 402019c:	e0bffb17 	ldw	r2,-20(fp)
 40201a0:	103fdb1e 	bne	r2,zero,4020110 <__flash_rwdata_start+0xfffef84c>

  /*
   * Notify the operating system that interrupt processing is complete.
   */ 

  ALT_OS_INT_EXIT();
 40201a4:	0001883a 	nop
}
 40201a8:	e037883a 	mov	sp,fp
 40201ac:	dfc00117 	ldw	ra,4(sp)
 40201b0:	df000017 	ldw	fp,0(sp)
 40201b4:	dec00204 	addi	sp,sp,8
 40201b8:	f800283a 	ret

Disassembly of section .text:

040201bc <_start>:

    /*
     * Now that the caches are initialized, set up the stack pointer and global pointer.
     * The values provided by the linker are assumed to be correctly aligned.
     */
    movhi sp, %hi(__alt_stack_pointer)
 40201bc:	06c10034 	movhi	sp,1024
    ori sp, sp, %lo(__alt_stack_pointer)
 40201c0:	dec00014 	ori	sp,sp,0
    movhi gp, %hi(_gp)
 40201c4:	06800034 	movhi	gp,0
    ori gp, gp, %lo(_gp)
 40201c8:	d6a77e14 	ori	gp,gp,40440
 */
#ifndef ALT_SIM_OPTIMIZE
    /* Log that the BSS is about to be cleared. */
    ALT_LOG_PUTS(alt_log_msg_bss)

    movhi r2, %hi(__bss_start)
 40201cc:	00800034 	movhi	r2,0
    ori r2, r2, %lo(__bss_start)
 40201d0:	10879514 	ori	r2,r2,7764

    movhi r3, %hi(__bss_end)
 40201d4:	00c00034 	movhi	r3,0
    ori r3, r3, %lo(__bss_end)
 40201d8:	18c7ef14 	ori	r3,r3,8124

    beq r2, r3, 1f
 40201dc:	10c00326 	beq	r2,r3,40201ec <_start+0x30>

0:
    stw zero, (r2)
 40201e0:	10000015 	stw	zero,0(r2)
    addi r2, r2, 4
 40201e4:	10800104 	addi	r2,r2,4
    bltu r2, r3, 0b
 40201e8:	10fffd36 	bltu	r2,r3,40201e0 <__flash_rwdata_start+0xfffef91c>
     * section aren't defined until alt_load() has been called).
     */
    mov   et, zero
#endif

    call alt_load
 40201ec:	402e2c80 	call	402e2c8 <alt_load>

    /* Log that alt_main is about to be called. */
    ALT_LOG_PUTS(alt_log_msg_alt_main)

    /* Call the C entry point. It should never return. */
    call alt_main
 40201f0:	402e4740 	call	402e474 <alt_main>

040201f4 <alt_after_alt_main>:

    /* Wait in infinite loop in case alt_main does return. */
alt_after_alt_main:
    br alt_after_alt_main
 40201f4:	003fff06 	br	40201f4 <__flash_rwdata_start+0xfffef930>

040201f8 <recordAudio>:
state currentState = IDLE;

// Declare a global variable to hold the edge capture value.
volatile int edge_capture;

static void recordAudio(alt_u32 BaseAddr, alt_u32 ByteLen, alt_u32 InitValue) {
 40201f8:	def7e704 	addi	sp,sp,-8292
 40201fc:	dfc81815 	stw	ra,8288(sp)
 4020200:	df081715 	stw	fp,8284(sp)
 4020204:	df081704 	addi	fp,sp,8284
 4020208:	e13ffd15 	stw	r4,-12(fp)
 402020c:	e17ffe15 	stw	r5,-8(fp)
 4020210:	e1bfff15 	stw	r6,-4(fp)

	bool bPass = TRUE;
 4020214:	00800044 	movi	r2,1
 4020218:	e0b7ed15 	stw	r2,-8268(fp)
	alt_u32 szData[1025];
	alt_u32 szRead[1025];
	int i, nRemainedLen, nAccessLen;
	alt_u32 *pDes, *pSrc, nItemNum, nPos;

	int nProgressIndex = 0;
 402021c:	e037ee15 	stw	zero,-8264(fp)
	alt_u32 szProgress[10];

	for (i = 0; i < 10; i++) {
 4020220:	e037e915 	stw	zero,-8284(fp)
 4020224:	00001506 	br	402027c <recordAudio+0x84>
		szProgress[i] = ByteLen / 10 * (i + 1);
 4020228:	e0bffe17 	ldw	r2,-8(fp)
 402022c:	1009883a 	mov	r4,r2
 4020230:	01400284 	movi	r5,10
 4020234:	40210fc0 	call	40210fc <__udivsi3>
 4020238:	1007883a 	mov	r3,r2
 402023c:	e0b7e917 	ldw	r2,-8284(fp)
 4020240:	10800044 	addi	r2,r2,1
 4020244:	1809883a 	mov	r4,r3
 4020248:	100b883a 	mov	r5,r2
 402024c:	402110c0 	call	402110c <__mulsi3>
 4020250:	1007883a 	mov	r3,r2
 4020254:	e0b7e917 	ldw	r2,-8284(fp)
 4020258:	1085883a 	add	r2,r2,r2
 402025c:	1085883a 	add	r2,r2,r2
 4020260:	e137e904 	addi	r4,fp,-8284
 4020264:	2085883a 	add	r2,r4,r2
 4020268:	10880a04 	addi	r2,r2,8232
 402026c:	10c00015 	stw	r3,0(r2)
	alt_u32 *pDes, *pSrc, nItemNum, nPos;

	int nProgressIndex = 0;
	alt_u32 szProgress[10];

	for (i = 0; i < 10; i++) {
 4020270:	e0b7e917 	ldw	r2,-8284(fp)
 4020274:	10800044 	addi	r2,r2,1
 4020278:	e0b7e915 	stw	r2,-8284(fp)
 402027c:	e0b7e917 	ldw	r2,-8284(fp)
 4020280:	10800290 	cmplti	r2,r2,10
 4020284:	103fe81e 	bne	r2,zero,4020228 <__flash_rwdata_start+0xfffef964>
		szProgress[i] = ByteLen / 10 * (i + 1);
	}

	nItemNum = sizeof(szData) / sizeof(szData[0]);
 4020288:	00810044 	movi	r2,1025
 402028c:	e0b7ef15 	stw	r2,-8260(fp)
	for (i = 0; i < nItemNum; i++) {
 4020290:	e037e915 	stw	zero,-8284(fp)
 4020294:	00002106 	br	402031c <recordAudio+0x124>
		if (i == 0)
 4020298:	e0b7e917 	ldw	r2,-8284(fp)
 402029c:	1000091e 	bne	r2,zero,40202c4 <recordAudio+0xcc>
			szData[i] = InitValue;
 40202a0:	e0b7e917 	ldw	r2,-8284(fp)
 40202a4:	1085883a 	add	r2,r2,r2
 40202a8:	1085883a 	add	r2,r2,r2
 40202ac:	e0f7e904 	addi	r3,fp,-8284
 40202b0:	1885883a 	add	r2,r3,r2
 40202b4:	10800804 	addi	r2,r2,32
 40202b8:	e0ffff17 	ldw	r3,-4(fp)
 40202bc:	10c00015 	stw	r3,0(r2)
 40202c0:	00001306 	br	4020310 <recordAudio+0x118>
		else
			szData[i] = szData[i - 1] * 13;
 40202c4:	e0b7e917 	ldw	r2,-8284(fp)
 40202c8:	10bfffc4 	addi	r2,r2,-1
 40202cc:	1085883a 	add	r2,r2,r2
 40202d0:	1085883a 	add	r2,r2,r2
 40202d4:	e137e904 	addi	r4,fp,-8284
 40202d8:	2085883a 	add	r2,r4,r2
 40202dc:	10800804 	addi	r2,r2,32
 40202e0:	10800017 	ldw	r2,0(r2)
 40202e4:	1009883a 	mov	r4,r2
 40202e8:	01400344 	movi	r5,13
 40202ec:	402110c0 	call	402110c <__mulsi3>
 40202f0:	1007883a 	mov	r3,r2
 40202f4:	e0b7e917 	ldw	r2,-8284(fp)
 40202f8:	1085883a 	add	r2,r2,r2
 40202fc:	1085883a 	add	r2,r2,r2
 4020300:	e137e904 	addi	r4,fp,-8284
 4020304:	2085883a 	add	r2,r4,r2
 4020308:	10800804 	addi	r2,r2,32
 402030c:	10c00015 	stw	r3,0(r2)
	for (i = 0; i < 10; i++) {
		szProgress[i] = ByteLen / 10 * (i + 1);
	}

	nItemNum = sizeof(szData) / sizeof(szData[0]);
	for (i = 0; i < nItemNum; i++) {
 4020310:	e0b7e917 	ldw	r2,-8284(fp)
 4020314:	10800044 	addi	r2,r2,1
 4020318:	e0b7e915 	stw	r2,-8284(fp)
 402031c:	e0f7e917 	ldw	r3,-8284(fp)
 4020320:	e0b7ef17 	ldw	r2,-8260(fp)
 4020324:	18bfdc36 	bltu	r3,r2,4020298 <__flash_rwdata_start+0xfffef9d4>
		if (i == 0)
			szData[i] = InitValue;
		else
			szData[i] = szData[i - 1] * 13;
	}
	szData[nItemNum - 1] = 0xAAAAAAAA;
 4020328:	e0b7ef17 	ldw	r2,-8260(fp)
 402032c:	10bfffc4 	addi	r2,r2,-1
 4020330:	1085883a 	add	r2,r2,r2
 4020334:	1085883a 	add	r2,r2,r2
 4020338:	e0f7e904 	addi	r3,fp,-8284
 402033c:	1885883a 	add	r2,r3,r2
 4020340:	10c00804 	addi	r3,r2,32
 4020344:	00aaaaf4 	movhi	r2,43691
 4020348:	10aaaa84 	addi	r2,r2,-21846
 402034c:	18800015 	stw	r2,0(r3)
	szData[nItemNum - 2] = 0x55555555;
 4020350:	e0b7ef17 	ldw	r2,-8260(fp)
 4020354:	10bfff84 	addi	r2,r2,-2
 4020358:	1085883a 	add	r2,r2,r2
 402035c:	1085883a 	add	r2,r2,r2
 4020360:	e137e904 	addi	r4,fp,-8284
 4020364:	2085883a 	add	r2,r4,r2
 4020368:	10c00804 	addi	r3,r2,32
 402036c:	00955574 	movhi	r2,21845
 4020370:	10955544 	addi	r2,r2,21845
 4020374:	18800015 	stw	r2,0(r3)
	szData[nItemNum - 3] = 0x00000000;
 4020378:	e0b7ef17 	ldw	r2,-8260(fp)
 402037c:	10bfff44 	addi	r2,r2,-3
 4020380:	1085883a 	add	r2,r2,r2
 4020384:	1085883a 	add	r2,r2,r2
 4020388:	e0f7e904 	addi	r3,fp,-8284
 402038c:	1885883a 	add	r2,r3,r2
 4020390:	10800804 	addi	r2,r2,32
 4020394:	10000015 	stw	zero,0(r2)
	szData[nItemNum - 4] = 0xFFFFFFFF;
 4020398:	e0b7ef17 	ldw	r2,-8260(fp)
 402039c:	10bfff04 	addi	r2,r2,-4
 40203a0:	1085883a 	add	r2,r2,r2
 40203a4:	1085883a 	add	r2,r2,r2
 40203a8:	e137e904 	addi	r4,fp,-8284
 40203ac:	2085883a 	add	r2,r4,r2
 40203b0:	10800804 	addi	r2,r2,32
 40203b4:	00ffffc4 	movi	r3,-1
 40203b8:	10c00015 	stw	r3,0(r2)

	// write
	pDes = (alt_u32 *) BaseAddr;
 40203bc:	e0bffd17 	ldw	r2,-12(fp)
 40203c0:	e0b7eb15 	stw	r2,-8276(fp)
	nAccessLen = sizeof(szData);
 40203c4:	00840104 	movi	r2,4100
 40203c8:	e0b7ea15 	stw	r2,-8280(fp)
	nPos = 0;
 40203cc:	e037ec15 	stw	zero,-8272(fp)
	while (nPos < ByteLen) {
 40203d0:	00001d06 	br	4020448 <recordAudio+0x250>
		nRemainedLen = ByteLen - nPos;
 40203d4:	e0fffe17 	ldw	r3,-8(fp)
 40203d8:	e0b7ec17 	ldw	r2,-8272(fp)
 40203dc:	1885c83a 	sub	r2,r3,r2
 40203e0:	e0b7f015 	stw	r2,-8256(fp)
		if (nAccessLen > nRemainedLen)
 40203e4:	e0b7ea17 	ldw	r2,-8280(fp)
 40203e8:	e0f7f017 	ldw	r3,-8256(fp)
 40203ec:	1880020e 	bge	r3,r2,40203f8 <recordAudio+0x200>
			nAccessLen = nRemainedLen;
 40203f0:	e0b7f017 	ldw	r2,-8256(fp)
 40203f4:	e0b7ea15 	stw	r2,-8280(fp)
		memcpy(pDes, szData, nAccessLen);
 40203f8:	e0b7ea17 	ldw	r2,-8280(fp)
 40203fc:	e0f7f104 	addi	r3,fp,-8252
 4020400:	e137eb17 	ldw	r4,-8276(fp)
 4020404:	180b883a 	mov	r5,r3
 4020408:	100d883a 	mov	r6,r2
 402040c:	40211340 	call	4021134 <memcpy>
		pDes += nAccessLen / 4;
 4020410:	e0b7ea17 	ldw	r2,-8280(fp)
 4020414:	1000010e 	bge	r2,zero,402041c <recordAudio+0x224>
 4020418:	108000c4 	addi	r2,r2,3
 402041c:	1005d0ba 	srai	r2,r2,2
 4020420:	1085883a 	add	r2,r2,r2
 4020424:	1085883a 	add	r2,r2,r2
 4020428:	1007883a 	mov	r3,r2
 402042c:	e0b7eb17 	ldw	r2,-8276(fp)
 4020430:	10c5883a 	add	r2,r2,r3
 4020434:	e0b7eb15 	stw	r2,-8276(fp)
		nPos += nAccessLen;
 4020438:	e0b7ea17 	ldw	r2,-8280(fp)
 402043c:	e0f7ec17 	ldw	r3,-8272(fp)
 4020440:	1885883a 	add	r2,r3,r2
 4020444:	e0b7ec15 	stw	r2,-8272(fp)

	// write
	pDes = (alt_u32 *) BaseAddr;
	nAccessLen = sizeof(szData);
	nPos = 0;
	while (nPos < ByteLen) {
 4020448:	e0f7ec17 	ldw	r3,-8272(fp)
 402044c:	e0bffe17 	ldw	r2,-8(fp)
 4020450:	18bfe036 	bltu	r3,r2,40203d4 <__flash_rwdata_start+0xfffefb10>
		memcpy(pDes, szData, nAccessLen);
		pDes += nAccessLen / 4;
		nPos += nAccessLen;

		}
	}
 4020454:	e037883a 	mov	sp,fp
 4020458:	dfc00117 	ldw	ra,4(sp)
 402045c:	df000017 	ldw	fp,0(sp)
 4020460:	dec00204 	addi	sp,sp,8
 4020464:	f800283a 	ret

04020468 <playAudio>:

	//alt_dcache_flush_all();

static void playAudio(alt_u32 BaseAddr, alt_u32 ByteLen, alt_u32 InitValue) {
 4020468:	def7e704 	addi	sp,sp,-8292
 402046c:	dfc81815 	stw	ra,8288(sp)
 4020470:	df081715 	stw	fp,8284(sp)
 4020474:	df081704 	addi	fp,sp,8284
 4020478:	e13ffd15 	stw	r4,-12(fp)
 402047c:	e17ffe15 	stw	r5,-8(fp)
 4020480:	e1bfff15 	stw	r6,-4(fp)

	bool bPass = TRUE;
 4020484:	00800044 	movi	r2,1
 4020488:	e0b7e915 	stw	r2,-8284(fp)
	alt_u32 szData[1025];
	alt_u32 szRead[1025];
	int i, nRemainedLen, nAccessLen;
	alt_u32 *pDes, *pSrc, nItemNum, nPos;

	int nProgressIndex = 0;
 402048c:	e037ee15 	stw	zero,-8264(fp)
	alt_u32 szProgress[10];

	// read & verify
	pSrc = (alt_u32 *) BaseAddr;
 4020490:	e0bffd17 	ldw	r2,-12(fp)
 4020494:	e0b7ec15 	stw	r2,-8272(fp)
	nAccessLen = sizeof(szRead);
 4020498:	00840104 	movi	r2,4100
 402049c:	e0b7eb15 	stw	r2,-8276(fp)
	nPos = 0;
 40204a0:	e037ed15 	stw	zero,-8268(fp)
	while (bPass && nPos < ByteLen) {
 40204a4:	00003906 	br	402058c <playAudio+0x124>
		nRemainedLen = ByteLen - nPos;
 40204a8:	e0fffe17 	ldw	r3,-8(fp)
 40204ac:	e0b7ed17 	ldw	r2,-8268(fp)
 40204b0:	1885c83a 	sub	r2,r3,r2
 40204b4:	e0b7ef15 	stw	r2,-8260(fp)
		if (nAccessLen > nRemainedLen)
 40204b8:	e0b7eb17 	ldw	r2,-8276(fp)
 40204bc:	e0f7ef17 	ldw	r3,-8260(fp)
 40204c0:	1880020e 	bge	r3,r2,40204cc <playAudio+0x64>
			nAccessLen = nRemainedLen;
 40204c4:	e0b7ef17 	ldw	r2,-8260(fp)
 40204c8:	e0b7eb15 	stw	r2,-8276(fp)
		// memset(szRead, 0xAA, nAccessLen); // reset content
		memcpy(szRead, pSrc, nAccessLen);
 40204cc:	e0b7eb17 	ldw	r2,-8276(fp)
 40204d0:	e0fbf204 	addi	r3,fp,-4152
 40204d4:	1809883a 	mov	r4,r3
 40204d8:	e177ec17 	ldw	r5,-8272(fp)
 40204dc:	100d883a 	mov	r6,r2
 40204e0:	40211340 	call	4021134 <memcpy>
		// verify
		nItemNum = nAccessLen / 4;
 40204e4:	e0b7eb17 	ldw	r2,-8276(fp)
 40204e8:	1000010e 	bge	r2,zero,40204f0 <playAudio+0x88>
 40204ec:	108000c4 	addi	r2,r2,3
 40204f0:	1005d0ba 	srai	r2,r2,2
 40204f4:	e0b7f015 	stw	r2,-8256(fp)
		for (i = 0; i < nItemNum && bPass; i++) {
 40204f8:	e037ea15 	stw	zero,-8280(fp)
 40204fc:	00001306 	br	402054c <playAudio+0xe4>
			if (szRead[i] != szData[i]) {
 4020500:	e0b7ea17 	ldw	r2,-8280(fp)
 4020504:	1085883a 	add	r2,r2,r2
 4020508:	1085883a 	add	r2,r2,r2
 402050c:	e0f7e904 	addi	r3,fp,-8284
 4020510:	1885883a 	add	r2,r3,r2
 4020514:	10840904 	addi	r2,r2,4132
 4020518:	10c00017 	ldw	r3,0(r2)
 402051c:	e0b7ea17 	ldw	r2,-8280(fp)
 4020520:	1085883a 	add	r2,r2,r2
 4020524:	1085883a 	add	r2,r2,r2
 4020528:	e137e904 	addi	r4,fp,-8284
 402052c:	2085883a 	add	r2,r4,r2
 4020530:	10800804 	addi	r2,r2,32
 4020534:	10800017 	ldw	r2,0(r2)
 4020538:	18800126 	beq	r3,r2,4020540 <playAudio+0xd8>
				bPass = FALSE;
 402053c:	e037e915 	stw	zero,-8284(fp)
			nAccessLen = nRemainedLen;
		// memset(szRead, 0xAA, nAccessLen); // reset content
		memcpy(szRead, pSrc, nAccessLen);
		// verify
		nItemNum = nAccessLen / 4;
		for (i = 0; i < nItemNum && bPass; i++) {
 4020540:	e0b7ea17 	ldw	r2,-8280(fp)
 4020544:	10800044 	addi	r2,r2,1
 4020548:	e0b7ea15 	stw	r2,-8280(fp)
 402054c:	e0f7ea17 	ldw	r3,-8280(fp)
 4020550:	e0b7f017 	ldw	r2,-8256(fp)
 4020554:	1880022e 	bgeu	r3,r2,4020560 <playAudio+0xf8>
 4020558:	e0b7e917 	ldw	r2,-8284(fp)
 402055c:	103fe81e 	bne	r2,zero,4020500 <__flash_rwdata_start+0xfffefc3c>
			if (szRead[i] != szData[i]) {
				bPass = FALSE;
			}
		}
		//
		pSrc += nItemNum;
 4020560:	e0b7f017 	ldw	r2,-8256(fp)
 4020564:	1085883a 	add	r2,r2,r2
 4020568:	1085883a 	add	r2,r2,r2
 402056c:	1007883a 	mov	r3,r2
 4020570:	e0b7ec17 	ldw	r2,-8272(fp)
 4020574:	10c5883a 	add	r2,r2,r3
 4020578:	e0b7ec15 	stw	r2,-8272(fp)
		nPos += nAccessLen;
 402057c:	e0b7eb17 	ldw	r2,-8276(fp)
 4020580:	e0f7ed17 	ldw	r3,-8268(fp)
 4020584:	1885883a 	add	r2,r3,r2
 4020588:	e0b7ed15 	stw	r2,-8268(fp)

	// read & verify
	pSrc = (alt_u32 *) BaseAddr;
	nAccessLen = sizeof(szRead);
	nPos = 0;
	while (bPass && nPos < ByteLen) {
 402058c:	e0b7e917 	ldw	r2,-8284(fp)
 4020590:	10000326 	beq	r2,zero,40205a0 <playAudio+0x138>
 4020594:	e0f7ed17 	ldw	r3,-8268(fp)
 4020598:	e0bffe17 	ldw	r2,-8(fp)
 402059c:	18bfc236 	bltu	r3,r2,40204a8 <__flash_rwdata_start+0xfffefbe4>
		}
		//
		pSrc += nItemNum;
		nPos += nAccessLen;
	}
}
 40205a0:	e037883a 	mov	sp,fp
 40205a4:	dfc00117 	ldw	ra,4(sp)
 40205a8:	df000017 	ldw	fp,0(sp)
 40205ac:	dec00204 	addi	sp,sp,8
 40205b0:	f800283a 	ret

040205b4 <playIsr>:
static void playIsr(void* context) {
 40205b4:	defffd04 	addi	sp,sp,-12
 40205b8:	df000215 	stw	fp,8(sp)
 40205bc:	df000204 	addi	fp,sp,8
 40205c0:	e13fff15 	stw	r4,-4(fp)
	// Cast context to edge_capture's type. It is important that this
	//	be declared volatile to avoid unwanted compiler optimization.
	volatile int* edge_capture_ptr = (volatile int*) context;
 40205c4:	e0bfff17 	ldw	r2,-4(fp)
 40205c8:	e0bffe15 	stw	r2,-8(fp)

	currentState = PLAYING;
 40205cc:	00800044 	movi	r2,1
 40205d0:	d0a01815 	stw	r2,-32672(gp)
	sdram_current_ptr = sdram_base_ptr;
 40205d4:	d0a00317 	ldw	r2,-32756(gp)
 40205d8:	d0a01715 	stw	r2,-32676(gp)

	// Read the edge capture register on the button PIO.
	// Store value.
	*edge_capture_ptr = IORD_ALTERA_AVALON_PIO_EDGE_CAP(PLAY_BTN_IN_BASE);
 40205dc:	00810134 	movhi	r2,1028
 40205e0:	10840f04 	addi	r2,r2,4156
 40205e4:	10c00037 	ldwio	r3,0(r2)
 40205e8:	e0bffe17 	ldw	r2,-8(fp)
 40205ec:	10c00015 	stw	r3,0(r2)

	// Write to the edge capture register to reset it.
	IOWR_ALTERA_AVALON_PIO_EDGE_CAP(PLAY_BTN_IN_BASE, 0);
 40205f0:	0007883a 	mov	r3,zero
 40205f4:	00810134 	movhi	r2,1028
 40205f8:	10840f04 	addi	r2,r2,4156
 40205fc:	10c00035 	stwio	r3,0(r2)

	// Read the PIO to delay ISR exit. This is done to prevent a
	// spurious interrupt in systems with high processor -> pio
	// latency and fast interrupts.
	IORD_ALTERA_AVALON_PIO_EDGE_CAP(PLAY_BTN_IN_BASE);
 4020600:	00810134 	movhi	r2,1028
 4020604:	10840f04 	addi	r2,r2,4156
 4020608:	10800037 	ldwio	r2,0(r2)
}
 402060c:	e037883a 	mov	sp,fp
 4020610:	df000017 	ldw	fp,0(sp)
 4020614:	dec00104 	addi	sp,sp,4
 4020618:	f800283a 	ret

0402061c <recordIsr>:

static void recordIsr(void* context) {
 402061c:	defffd04 	addi	sp,sp,-12
 4020620:	df000215 	stw	fp,8(sp)
 4020624:	df000204 	addi	fp,sp,8
 4020628:	e13fff15 	stw	r4,-4(fp)
	// Cast context to edge_capture's type. It is important that this
	//	be declared volatile to avoid unwanted compiler optimization.
	volatile int* edge_capture_ptr = (volatile int*) context;
 402062c:	e0bfff17 	ldw	r2,-4(fp)
 4020630:	e0bffe15 	stw	r2,-8(fp)

	currentState = RECORDING;
 4020634:	00800084 	movi	r2,2
 4020638:	d0a01815 	stw	r2,-32672(gp)
	sdram_current_ptr = sdram_base_ptr;
 402063c:	d0a00317 	ldw	r2,-32756(gp)
 4020640:	d0a01715 	stw	r2,-32676(gp)

	// Read the edge capture register on the button PIO.
	// Store value.
	*edge_capture_ptr = IORD_ALTERA_AVALON_PIO_EDGE_CAP(RECORD_BTN_IN_BASE);
 4020644:	00810134 	movhi	r2,1028
 4020648:	10840b04 	addi	r2,r2,4140
 402064c:	10c00037 	ldwio	r3,0(r2)
 4020650:	e0bffe17 	ldw	r2,-8(fp)
 4020654:	10c00015 	stw	r3,0(r2)

	// Write to the edge capture register to reset it.
	IOWR_ALTERA_AVALON_PIO_EDGE_CAP(RECORD_BTN_IN_BASE, 0);
 4020658:	0007883a 	mov	r3,zero
 402065c:	00810134 	movhi	r2,1028
 4020660:	10840b04 	addi	r2,r2,4140
 4020664:	10c00035 	stwio	r3,0(r2)

	// Read the PIO to delay ISR exit. This is done to prevent a
	// spurious interrupt in systems with high processor -> pio
	// latency and fast interrupts.
	IORD_ALTERA_AVALON_PIO_EDGE_CAP(RECORD_BTN_IN_BASE);
 4020668:	00810134 	movhi	r2,1028
 402066c:	10840b04 	addi	r2,r2,4140
 4020670:	10800037 	ldwio	r2,0(r2)
}
 4020674:	e037883a 	mov	sp,fp
 4020678:	df000017 	ldw	fp,0(sp)
 402067c:	dec00104 	addi	sp,sp,4
 4020680:	f800283a 	ret

04020684 <syncIsr>:

static void syncIsr(void* context) {
 4020684:	defffc04 	addi	sp,sp,-16
 4020688:	dfc00315 	stw	ra,12(sp)
 402068c:	df000215 	stw	fp,8(sp)
 4020690:	df000204 	addi	fp,sp,8
 4020694:	e13fff15 	stw	r4,-4(fp)
	// Cast context to edge_capture's type. It is important that this
	//	be declared volatile to avoid unwanted compiler optimization.
	volatile int* edge_capture_ptr = (volatile int*) context;
 4020698:	e0bfff17 	ldw	r2,-4(fp)
 402069c:	e0bffe15 	stw	r2,-8(fp)

	if (currentState == RECORDING) {
 40206a0:	d0a01817 	ldw	r2,-32672(gp)
 40206a4:	10800098 	cmpnei	r2,r2,2
 40206a8:	10000a1e 	bne	r2,zero,40206d4 <syncIsr+0x50>
		//memcpy(sdram_current_ptr++, data_in_ptr, DATA_IN_DATA_WIDTH);
		memcpy(sdram_current_ptr++, data_in_ptr, DATA_OUT_DATA_WIDTH);
 40206ac:	d0a01717 	ldw	r2,-32676(gp)
 40206b0:	10c00104 	addi	r3,r2,4
 40206b4:	d0e01715 	stw	r3,-32676(gp)
 40206b8:	d0e00517 	ldw	r3,-32748(gp)
 40206bc:	1009883a 	mov	r4,r2
 40206c0:	180b883a 	mov	r5,r3
 40206c4:	01800404 	movi	r6,16
 40206c8:	40211340 	call	4021134 <memcpy>
		//recordAudio(SDRAM_BASE, SDRAM_SPAN, *data_in_ptr);
		alt_dcache_flush_all();
 40206cc:	402dd480 	call	402dd48 <alt_dcache_flush_all>
 40206d0:	00000a06 	br	40206fc <syncIsr+0x78>

		//*sdram_current_ptr++ = *data_in_ptr;
	} else if (currentState == PLAYING) {
 40206d4:	d0a01817 	ldw	r2,-32672(gp)
 40206d8:	10800058 	cmpnei	r2,r2,1
 40206dc:	1000071e 	bne	r2,zero,40206fc <syncIsr+0x78>
		//*data_out_ptr = *sdram_current_ptr++;
		//memcpy(data_out_ptr, sdram_current_ptr++, DATA_OUT_DATA_WIDTH);
		memcpy(data_out_ptr, sdram_current_ptr++, DATA_OUT_DATA_WIDTH);
 40206e0:	d1200617 	ldw	r4,-32744(gp)
 40206e4:	d0a01717 	ldw	r2,-32676(gp)
 40206e8:	10c00104 	addi	r3,r2,4
 40206ec:	d0e01715 	stw	r3,-32676(gp)
 40206f0:	100b883a 	mov	r5,r2
 40206f4:	01800404 	movi	r6,16
 40206f8:	40211340 	call	4021134 <memcpy>
		//playAudio(SDRAM_BASE, SDRAM_SPAN, *data_in_ptr);
	}
	if (sdram_current_ptr >= sdram_max_ptr) {
 40206fc:	d0e01717 	ldw	r3,-32676(gp)
 4020700:	d0a00417 	ldw	r2,-32752(gp)
 4020704:	18800c36 	bltu	r3,r2,4020738 <syncIsr+0xb4>
		sdram_current_ptr = sdram_base_ptr;
 4020708:	d0a00317 	ldw	r2,-32756(gp)
 402070c:	d0a01715 	stw	r2,-32676(gp)
		if (currentState == RECORDING) {
 4020710:	d0a01817 	ldw	r2,-32672(gp)
 4020714:	10800098 	cmpnei	r2,r2,2
 4020718:	1000031e 	bne	r2,zero,4020728 <syncIsr+0xa4>
			currentState = PLAYING;
 402071c:	00800044 	movi	r2,1
 4020720:	d0a01815 	stw	r2,-32672(gp)
 4020724:	00000406 	br	4020738 <syncIsr+0xb4>
		} else if (currentState == PLAYING) {
 4020728:	d0a01817 	ldw	r2,-32672(gp)
 402072c:	10800058 	cmpnei	r2,r2,1
 4020730:	1000011e 	bne	r2,zero,4020738 <syncIsr+0xb4>
			currentState = IDLE;
 4020734:	d0201815 	stw	zero,-32672(gp)

	//memcpy(data_out_ptr, data_in_ptr, DATA_IN_DATA_WIDTH); // Passthrough

	// Read the edge capture register on the button PIO.
	// Store value.
	*edge_capture_ptr = IORD_ALTERA_AVALON_PIO_EDGE_CAP(SYNC_IN_BASE);
 4020738:	00810134 	movhi	r2,1028
 402073c:	10841b04 	addi	r2,r2,4204
 4020740:	10c00037 	ldwio	r3,0(r2)
 4020744:	e0bffe17 	ldw	r2,-8(fp)
 4020748:	10c00015 	stw	r3,0(r2)

	// Write to the edge capture register to reset it.
	IOWR_ALTERA_AVALON_PIO_EDGE_CAP(SYNC_IN_BASE, 0);
 402074c:	0007883a 	mov	r3,zero
 4020750:	00810134 	movhi	r2,1028
 4020754:	10841b04 	addi	r2,r2,4204
 4020758:	10c00035 	stwio	r3,0(r2)

	// Read the PIO to delay ISR exit. This is done to prevent a
	// spurious interrupt in systems with high processor -> pio
	// latency and fast interrupts.
	IORD_ALTERA_AVALON_PIO_EDGE_CAP(SYNC_IN_BASE);
 402075c:	00810134 	movhi	r2,1028
 4020760:	10841b04 	addi	r2,r2,4204
 4020764:	10800037 	ldwio	r2,0(r2)
}
 4020768:	e037883a 	mov	sp,fp
 402076c:	dfc00117 	ldw	ra,4(sp)
 4020770:	df000017 	ldw	fp,0(sp)
 4020774:	dec00204 	addi	sp,sp,8
 4020778:	f800283a 	ret

0402077c <main>:

int main() {
 402077c:	defffb04 	addi	sp,sp,-20
 4020780:	dfc00415 	stw	ra,16(sp)
 4020784:	df000315 	stw	fp,12(sp)
 4020788:	df000304 	addi	fp,sp,12
	alt_u32 zero = 0;
 402078c:	e03ffe15 	stw	zero,-8(fp)
	 //sdram_current_ptr = zero;
	 } */

	// Recast the edge_capture pointer to match the
	//	alt_irq_register() function prototype.
	 void* edge_capture_ptr = (void*) &edge_capture;
 4020790:	d0a01904 	addi	r2,gp,-32668
 4020794:	e0bfff15 	stw	r2,-4(fp)

	// Enable all 4 button interrupts.
	IOWR_ALTERA_AVALON_PIO_IRQ_MASK(PLAY_BTN_IN_BASE, 0xf);
 4020798:	00c003c4 	movi	r3,15
 402079c:	00810134 	movhi	r2,1028
 40207a0:	10840e04 	addi	r2,r2,4152
 40207a4:	10c00035 	stwio	r3,0(r2)
	IOWR_ALTERA_AVALON_PIO_IRQ_MASK(RECORD_BTN_IN_BASE, 0xf);
 40207a8:	00c003c4 	movi	r3,15
 40207ac:	00810134 	movhi	r2,1028
 40207b0:	10840a04 	addi	r2,r2,4136
 40207b4:	10c00035 	stwio	r3,0(r2)
	IOWR_ALTERA_AVALON_PIO_IRQ_MASK(SYNC_IN_BASE, 0xf);
 40207b8:	00c003c4 	movi	r3,15
 40207bc:	00810134 	movhi	r2,1028
 40207c0:	10841a04 	addi	r2,r2,4200
 40207c4:	10c00035 	stwio	r3,0(r2)

	// Reset the edge capture register.
	IOWR_ALTERA_AVALON_PIO_EDGE_CAP(PLAY_BTN_IN_BASE, 0x0);
 40207c8:	0007883a 	mov	r3,zero
 40207cc:	00810134 	movhi	r2,1028
 40207d0:	10840f04 	addi	r2,r2,4156
 40207d4:	10c00035 	stwio	r3,0(r2)
	IOWR_ALTERA_AVALON_PIO_EDGE_CAP(RECORD_BTN_IN_BASE, 0x0);
 40207d8:	0007883a 	mov	r3,zero
 40207dc:	00810134 	movhi	r2,1028
 40207e0:	10840b04 	addi	r2,r2,4140
 40207e4:	10c00035 	stwio	r3,0(r2)
	IOWR_ALTERA_AVALON_PIO_EDGE_CAP(SYNC_IN_BASE, 0x0);
 40207e8:	0007883a 	mov	r3,zero
 40207ec:	00810134 	movhi	r2,1028
 40207f0:	10841b04 	addi	r2,r2,4204
 40207f4:	10c00035 	stwio	r3,0(r2)

	// Register the ISR.
	alt_ic_isr_register(PLAY_BTN_IN_IRQ_INTERRUPT_CONTROLLER_ID,
 40207f8:	d8000015 	stw	zero,0(sp)
 40207fc:	0009883a 	mov	r4,zero
 4020800:	01400104 	movi	r5,4
 4020804:	018100b4 	movhi	r6,1026
 4020808:	31816d04 	addi	r6,r6,1460
 402080c:	e1ffff17 	ldw	r7,-4(fp)
 4020810:	402de980 	call	402de98 <alt_ic_isr_register>
			PLAY_BTN_IN_IRQ, playIsr, edge_capture_ptr, 0x0);
	alt_ic_isr_register(RECORD_BTN_IN_IRQ_INTERRUPT_CONTROLLER_ID,
 4020814:	d8000015 	stw	zero,0(sp)
 4020818:	0009883a 	mov	r4,zero
 402081c:	01400144 	movi	r5,5
 4020820:	018100b4 	movhi	r6,1026
 4020824:	31818704 	addi	r6,r6,1564
 4020828:	e1ffff17 	ldw	r7,-4(fp)
 402082c:	402de980 	call	402de98 <alt_ic_isr_register>
			RECORD_BTN_IN_IRQ, recordIsr, edge_capture_ptr, 0x0);
	alt_ic_isr_register(SYNC_IN_IRQ_INTERRUPT_CONTROLLER_ID, SYNC_IN_IRQ,
 4020830:	d8000015 	stw	zero,0(sp)
 4020834:	0009883a 	mov	r4,zero
 4020838:	014000c4 	movi	r5,3
 402083c:	018100b4 	movhi	r6,1026
 4020840:	3181a104 	addi	r6,r6,1668
 4020844:	e1ffff17 	ldw	r7,-4(fp)
 4020848:	402de980 	call	402de98 <alt_ic_isr_register>
			syncIsr, edge_capture_ptr, 0x0);

	while (1) {
		switch (edge_capture) {
 402084c:	d0a01917 	ldw	r2,-32668(gp)
 4020850:	10c00120 	cmpeqi	r3,r2,4
 4020854:	1800051e 	bne	r3,zero,402086c <main+0xf0>
 4020858:	10c00160 	cmpeqi	r3,r2,5
 402085c:	1800051e 	bne	r3,zero,4020874 <main+0xf8>
 4020860:	108000e0 	cmpeqi	r2,r2,3
 4020864:	1000051e 	bne	r2,zero,402087c <main+0x100>
			//*led_out_ptr = 0b0000010;
			edge_capture = 0;
			break;
		default:
			//*led_out_ptr = 0b0000011;
			break;
 4020868:	00000606 	br	4020884 <main+0x108>

	while (1) {
		switch (edge_capture) {
		case PLAY_BTN_IN_IRQ:
			//*led_out_ptr = 0b0000001;
			edge_capture = 0;
 402086c:	d0201915 	stw	zero,-32668(gp)
			break;
 4020870:	00000406 	br	4020884 <main+0x108>
		case RECORD_BTN_IN_IRQ:
			//*led_out_ptr = 0b0000010;
			edge_capture = 0;
 4020874:	d0201915 	stw	zero,-32668(gp)
			break;
 4020878:	00000206 	br	4020884 <main+0x108>
		case SYNC_IN_IRQ:
			//*led_out_ptr = 0b0000010;
			edge_capture = 0;
 402087c:	d0201915 	stw	zero,-32668(gp)
			break;
 4020880:	0001883a 	nop
		default:
			//*led_out_ptr = 0b0000011;
			break;
		}
	}
 4020884:	003ff106 	br	402084c <__flash_rwdata_start+0xfffeff88>

04020888 <TMEM_Verify>:
#include "terasic_includes.h"
#include "mem_verify.h"



bool TMEM_Verify(alt_u32 BaseAddr, alt_u32 ByteLen, alt_u32 InitValue, bool bShowMessage){
 4020888:	def7e504 	addi	sp,sp,-8300
 402088c:	dfc81a15 	stw	ra,8296(sp)
 4020890:	df081915 	stw	fp,8292(sp)
 4020894:	df081904 	addi	fp,sp,8292
 4020898:	e13ffc15 	stw	r4,-16(fp)
 402089c:	e17ffd15 	stw	r5,-12(fp)
 40208a0:	e1bffe15 	stw	r6,-8(fp)
 40208a4:	e1ffff15 	stw	r7,-4(fp)
    bool bPass = TRUE;
 40208a8:	00800044 	movi	r2,1
 40208ac:	e0b7e715 	stw	r2,-8292(fp)
    alt_u32 szData[1025];
    alt_u32 szRead[1025];
    int i, nRemainedLen, nAccessLen;
    alt_u32 *pDes, *pSrc, nItemNum, nPos;

    int nProgressIndex=0;
 40208b0:	e037ed15 	stw	zero,-8268(fp)
    alt_u32 szProgress[10];
    
    for(i=0;i<10;i++){
 40208b4:	e037e815 	stw	zero,-8288(fp)
 40208b8:	00001506 	br	4020910 <TMEM_Verify+0x88>
        szProgress[i] = ByteLen/10*(i+1);     
 40208bc:	e0bffd17 	ldw	r2,-12(fp)
 40208c0:	1009883a 	mov	r4,r2
 40208c4:	01400284 	movi	r5,10
 40208c8:	40210fc0 	call	40210fc <__udivsi3>
 40208cc:	1007883a 	mov	r3,r2
 40208d0:	e0b7e817 	ldw	r2,-8288(fp)
 40208d4:	10800044 	addi	r2,r2,1
 40208d8:	1809883a 	mov	r4,r3
 40208dc:	100b883a 	mov	r5,r2
 40208e0:	402110c0 	call	402110c <__mulsi3>
 40208e4:	1007883a 	mov	r3,r2
 40208e8:	e0b7e817 	ldw	r2,-8288(fp)
 40208ec:	1085883a 	add	r2,r2,r2
 40208f0:	1085883a 	add	r2,r2,r2
 40208f4:	e137e704 	addi	r4,fp,-8292
 40208f8:	2085883a 	add	r2,r4,r2
 40208fc:	10880b04 	addi	r2,r2,8236
 4020900:	10c00015 	stw	r3,0(r2)
    alt_u32 *pDes, *pSrc, nItemNum, nPos;

    int nProgressIndex=0;
    alt_u32 szProgress[10];
    
    for(i=0;i<10;i++){
 4020904:	e0b7e817 	ldw	r2,-8288(fp)
 4020908:	10800044 	addi	r2,r2,1
 402090c:	e0b7e815 	stw	r2,-8288(fp)
 4020910:	e0b7e817 	ldw	r2,-8288(fp)
 4020914:	10800290 	cmplti	r2,r2,10
 4020918:	103fe81e 	bne	r2,zero,40208bc <__flash_rwdata_start+0xfffefff8>
        szProgress[i] = ByteLen/10*(i+1);     
    }
    
    
    
    nItemNum = sizeof(szData)/sizeof(szData[0]);
 402091c:	00810044 	movi	r2,1025
 4020920:	e0b7ee15 	stw	r2,-8264(fp)
    for(i=0;i<nItemNum;i++){
 4020924:	e037e815 	stw	zero,-8288(fp)
 4020928:	00002106 	br	40209b0 <TMEM_Verify+0x128>
        if (i == 0)
 402092c:	e0b7e817 	ldw	r2,-8288(fp)
 4020930:	1000091e 	bne	r2,zero,4020958 <TMEM_Verify+0xd0>
            szData[i] = InitValue;
 4020934:	e0b7e817 	ldw	r2,-8288(fp)
 4020938:	1085883a 	add	r2,r2,r2
 402093c:	1085883a 	add	r2,r2,r2
 4020940:	e0f7e704 	addi	r3,fp,-8292
 4020944:	1885883a 	add	r2,r3,r2
 4020948:	10800904 	addi	r2,r2,36
 402094c:	e0fffe17 	ldw	r3,-8(fp)
 4020950:	10c00015 	stw	r3,0(r2)
 4020954:	00001306 	br	40209a4 <TMEM_Verify+0x11c>
        else     
            szData[i] = szData[i-1] * 13;
 4020958:	e0b7e817 	ldw	r2,-8288(fp)
 402095c:	10bfffc4 	addi	r2,r2,-1
 4020960:	1085883a 	add	r2,r2,r2
 4020964:	1085883a 	add	r2,r2,r2
 4020968:	e137e704 	addi	r4,fp,-8292
 402096c:	2085883a 	add	r2,r4,r2
 4020970:	10800904 	addi	r2,r2,36
 4020974:	10800017 	ldw	r2,0(r2)
 4020978:	1009883a 	mov	r4,r2
 402097c:	01400344 	movi	r5,13
 4020980:	402110c0 	call	402110c <__mulsi3>
 4020984:	1007883a 	mov	r3,r2
 4020988:	e0b7e817 	ldw	r2,-8288(fp)
 402098c:	1085883a 	add	r2,r2,r2
 4020990:	1085883a 	add	r2,r2,r2
 4020994:	e137e704 	addi	r4,fp,-8292
 4020998:	2085883a 	add	r2,r4,r2
 402099c:	10800904 	addi	r2,r2,36
 40209a0:	10c00015 	stw	r3,0(r2)
    }
    
    
    
    nItemNum = sizeof(szData)/sizeof(szData[0]);
    for(i=0;i<nItemNum;i++){
 40209a4:	e0b7e817 	ldw	r2,-8288(fp)
 40209a8:	10800044 	addi	r2,r2,1
 40209ac:	e0b7e815 	stw	r2,-8288(fp)
 40209b0:	e0f7e817 	ldw	r3,-8288(fp)
 40209b4:	e0b7ee17 	ldw	r2,-8264(fp)
 40209b8:	18bfdc36 	bltu	r3,r2,402092c <__flash_rwdata_start+0xffff0068>
        if (i == 0)
            szData[i] = InitValue;
        else     
            szData[i] = szData[i-1] * 13;
    }
    szData[nItemNum-1] = 0xAAAAAAAA;
 40209bc:	e0b7ee17 	ldw	r2,-8264(fp)
 40209c0:	10bfffc4 	addi	r2,r2,-1
 40209c4:	1085883a 	add	r2,r2,r2
 40209c8:	1085883a 	add	r2,r2,r2
 40209cc:	e0f7e704 	addi	r3,fp,-8292
 40209d0:	1885883a 	add	r2,r3,r2
 40209d4:	10c00904 	addi	r3,r2,36
 40209d8:	00aaaaf4 	movhi	r2,43691
 40209dc:	10aaaa84 	addi	r2,r2,-21846
 40209e0:	18800015 	stw	r2,0(r3)
    szData[nItemNum-2] = 0x55555555;
 40209e4:	e0b7ee17 	ldw	r2,-8264(fp)
 40209e8:	10bfff84 	addi	r2,r2,-2
 40209ec:	1085883a 	add	r2,r2,r2
 40209f0:	1085883a 	add	r2,r2,r2
 40209f4:	e137e704 	addi	r4,fp,-8292
 40209f8:	2085883a 	add	r2,r4,r2
 40209fc:	10c00904 	addi	r3,r2,36
 4020a00:	00955574 	movhi	r2,21845
 4020a04:	10955544 	addi	r2,r2,21845
 4020a08:	18800015 	stw	r2,0(r3)
    szData[nItemNum-3] = 0x00000000;
 4020a0c:	e0b7ee17 	ldw	r2,-8264(fp)
 4020a10:	10bfff44 	addi	r2,r2,-3
 4020a14:	1085883a 	add	r2,r2,r2
 4020a18:	1085883a 	add	r2,r2,r2
 4020a1c:	e0f7e704 	addi	r3,fp,-8292
 4020a20:	1885883a 	add	r2,r3,r2
 4020a24:	10800904 	addi	r2,r2,36
 4020a28:	10000015 	stw	zero,0(r2)
    szData[nItemNum-4] = 0xFFFFFFFF;
 4020a2c:	e0b7ee17 	ldw	r2,-8264(fp)
 4020a30:	10bfff04 	addi	r2,r2,-4
 4020a34:	1085883a 	add	r2,r2,r2
 4020a38:	1085883a 	add	r2,r2,r2
 4020a3c:	e137e704 	addi	r4,fp,-8292
 4020a40:	2085883a 	add	r2,r4,r2
 4020a44:	10800904 	addi	r2,r2,36
 4020a48:	00ffffc4 	movi	r3,-1
 4020a4c:	10c00015 	stw	r3,0(r2)
    
    if (bShowMessage)
 4020a50:	e0bfff17 	ldw	r2,-4(fp)
 4020a54:	10000326 	beq	r2,zero,4020a64 <TMEM_Verify+0x1dc>
        printf("write...\n");
 4020a58:	01000034 	movhi	r4,0
 4020a5c:	21000004 	addi	r4,r4,0
 4020a60:	402139c0 	call	402139c <puts>
    // write
    pDes = (alt_u32 *)BaseAddr;
 4020a64:	e0bffc17 	ldw	r2,-16(fp)
 4020a68:	e0b7ea15 	stw	r2,-8280(fp)
    nAccessLen = sizeof(szData);
 4020a6c:	00840104 	movi	r2,4100
 4020a70:	e0b7e915 	stw	r2,-8284(fp)
    nPos = 0;
 4020a74:	e037ec15 	stw	zero,-8272(fp)
    while(nPos < ByteLen){
 4020a78:	00003706 	br	4020b58 <TMEM_Verify+0x2d0>
        nRemainedLen = ByteLen - nPos;
 4020a7c:	e0fffd17 	ldw	r3,-12(fp)
 4020a80:	e0b7ec17 	ldw	r2,-8272(fp)
 4020a84:	1885c83a 	sub	r2,r3,r2
 4020a88:	e0b7ef15 	stw	r2,-8260(fp)
        if (nAccessLen > nRemainedLen)
 4020a8c:	e0b7e917 	ldw	r2,-8284(fp)
 4020a90:	e0f7ef17 	ldw	r3,-8260(fp)
 4020a94:	1880020e 	bge	r3,r2,4020aa0 <TMEM_Verify+0x218>
            nAccessLen = nRemainedLen;
 4020a98:	e0b7ef17 	ldw	r2,-8260(fp)
 4020a9c:	e0b7e915 	stw	r2,-8284(fp)
        memcpy(pDes, szData, nAccessLen);
 4020aa0:	e0b7e917 	ldw	r2,-8284(fp)
 4020aa4:	e0f7f004 	addi	r3,fp,-8256
 4020aa8:	e137ea17 	ldw	r4,-8280(fp)
 4020aac:	180b883a 	mov	r5,r3
 4020ab0:	100d883a 	mov	r6,r2
 4020ab4:	40211340 	call	4021134 <memcpy>
        pDes += nAccessLen/4;
 4020ab8:	e0b7e917 	ldw	r2,-8284(fp)
 4020abc:	1000010e 	bge	r2,zero,4020ac4 <TMEM_Verify+0x23c>
 4020ac0:	108000c4 	addi	r2,r2,3
 4020ac4:	1005d0ba 	srai	r2,r2,2
 4020ac8:	1085883a 	add	r2,r2,r2
 4020acc:	1085883a 	add	r2,r2,r2
 4020ad0:	1007883a 	mov	r3,r2
 4020ad4:	e0b7ea17 	ldw	r2,-8280(fp)
 4020ad8:	10c5883a 	add	r2,r2,r3
 4020adc:	e0b7ea15 	stw	r2,-8280(fp)
        nPos += nAccessLen;
 4020ae0:	e0b7e917 	ldw	r2,-8284(fp)
 4020ae4:	e0f7ec17 	ldw	r3,-8272(fp)
 4020ae8:	1885883a 	add	r2,r3,r2
 4020aec:	e0b7ec15 	stw	r2,-8272(fp)
        
        if (bShowMessage){
 4020af0:	e0bfff17 	ldw	r2,-4(fp)
 4020af4:	10001826 	beq	r2,zero,4020b58 <TMEM_Verify+0x2d0>
            if (nProgressIndex <= 9 && nPos >= szProgress[nProgressIndex]){
 4020af8:	e0b7ed17 	ldw	r2,-8268(fp)
 4020afc:	10800288 	cmpgei	r2,r2,10
 4020b00:	1000151e 	bne	r2,zero,4020b58 <TMEM_Verify+0x2d0>
 4020b04:	e0b7ed17 	ldw	r2,-8268(fp)
 4020b08:	1085883a 	add	r2,r2,r2
 4020b0c:	1085883a 	add	r2,r2,r2
 4020b10:	e0f7e704 	addi	r3,fp,-8292
 4020b14:	1885883a 	add	r2,r3,r2
 4020b18:	10880b04 	addi	r2,r2,8236
 4020b1c:	10800017 	ldw	r2,0(r2)
 4020b20:	e0f7ec17 	ldw	r3,-8272(fp)
 4020b24:	18800c36 	bltu	r3,r2,4020b58 <TMEM_Verify+0x2d0>
                nProgressIndex++;
 4020b28:	e0b7ed17 	ldw	r2,-8268(fp)
 4020b2c:	10800044 	addi	r2,r2,1
 4020b30:	e0b7ed15 	stw	r2,-8268(fp)
                printf("%02d%% ", nProgressIndex*10);
 4020b34:	e137ed17 	ldw	r4,-8268(fp)
 4020b38:	01400284 	movi	r5,10
 4020b3c:	402110c0 	call	402110c <__mulsi3>
 4020b40:	01000034 	movhi	r4,0
 4020b44:	21000304 	addi	r4,r4,12
 4020b48:	100b883a 	mov	r5,r2
 4020b4c:	40212980 	call	4021298 <printf>
                usleep(50);
 4020b50:	01000c84 	movi	r4,50
 4020b54:	402e94c0 	call	402e94c <usleep>
        printf("write...\n");
    // write
    pDes = (alt_u32 *)BaseAddr;
    nAccessLen = sizeof(szData);
    nPos = 0;
    while(nPos < ByteLen){
 4020b58:	e0f7ec17 	ldw	r3,-8272(fp)
 4020b5c:	e0bffd17 	ldw	r2,-12(fp)
 4020b60:	18bfc636 	bltu	r3,r2,4020a7c <__flash_rwdata_start+0xffff01b8>
                usleep(50);
            }
        }            
    } 
    
    alt_dcache_flush_all();
 4020b64:	402dd480 	call	402dd48 <alt_dcache_flush_all>
    
    if (bShowMessage){
 4020b68:	e0bfff17 	ldw	r2,-4(fp)
 4020b6c:	10000626 	beq	r2,zero,4020b88 <TMEM_Verify+0x300>
        nProgressIndex = 0;
 4020b70:	e037ed15 	stw	zero,-8268(fp)
        printf("\nread/verify...\n");
 4020b74:	01000034 	movhi	r4,0
 4020b78:	21000504 	addi	r4,r4,20
 4020b7c:	402139c0 	call	402139c <puts>
        usleep(50);
 4020b80:	01000c84 	movi	r4,50
 4020b84:	402e94c0 	call	402e94c <usleep>
    }        
    
    // read & verify
    pSrc = (alt_u32 *)BaseAddr;
 4020b88:	e0bffc17 	ldw	r2,-16(fp)
 4020b8c:	e0b7eb15 	stw	r2,-8276(fp)
    nAccessLen = sizeof(szRead);
 4020b90:	00840104 	movi	r2,4100
 4020b94:	e0b7e915 	stw	r2,-8284(fp)
    nPos = 0;
 4020b98:	e037ec15 	stw	zero,-8272(fp)
    while(bPass && nPos < ByteLen){
 4020b9c:	00006f06 	br	4020d5c <TMEM_Verify+0x4d4>
        nRemainedLen = ByteLen - nPos;
 4020ba0:	e0fffd17 	ldw	r3,-12(fp)
 4020ba4:	e0b7ec17 	ldw	r2,-8272(fp)
 4020ba8:	1885c83a 	sub	r2,r3,r2
 4020bac:	e0b7ef15 	stw	r2,-8260(fp)
        if (nAccessLen > nRemainedLen)
 4020bb0:	e0b7e917 	ldw	r2,-8284(fp)
 4020bb4:	e0f7ef17 	ldw	r3,-8260(fp)
 4020bb8:	1880020e 	bge	r3,r2,4020bc4 <TMEM_Verify+0x33c>
            nAccessLen = nRemainedLen;
 4020bbc:	e0b7ef17 	ldw	r2,-8260(fp)
 4020bc0:	e0b7e915 	stw	r2,-8284(fp)
       // memset(szRead, 0xAA, nAccessLen); // reset content    
        memcpy(szRead, pSrc, nAccessLen);
 4020bc4:	e0b7e917 	ldw	r2,-8284(fp)
 4020bc8:	e0fbf104 	addi	r3,fp,-4156
 4020bcc:	1809883a 	mov	r4,r3
 4020bd0:	e177eb17 	ldw	r5,-8276(fp)
 4020bd4:	100d883a 	mov	r6,r2
 4020bd8:	40211340 	call	4021134 <memcpy>
        // verify
        nItemNum = nAccessLen / 4;
 4020bdc:	e0b7e917 	ldw	r2,-8284(fp)
 4020be0:	1000010e 	bge	r2,zero,4020be8 <TMEM_Verify+0x360>
 4020be4:	108000c4 	addi	r2,r2,3
 4020be8:	1005d0ba 	srai	r2,r2,2
 4020bec:	e0b7ee15 	stw	r2,-8264(fp)
        for(i=0;i<nItemNum && bPass;i++){
 4020bf0:	e037e815 	stw	zero,-8288(fp)
 4020bf4:	00002f06 	br	4020cb4 <TMEM_Verify+0x42c>
            if (szRead[i] != szData[i]){
 4020bf8:	e0b7e817 	ldw	r2,-8288(fp)
 4020bfc:	1085883a 	add	r2,r2,r2
 4020c00:	1085883a 	add	r2,r2,r2
 4020c04:	e137e704 	addi	r4,fp,-8292
 4020c08:	2085883a 	add	r2,r4,r2
 4020c0c:	10840a04 	addi	r2,r2,4136
 4020c10:	10c00017 	ldw	r3,0(r2)
 4020c14:	e0b7e817 	ldw	r2,-8288(fp)
 4020c18:	1085883a 	add	r2,r2,r2
 4020c1c:	1085883a 	add	r2,r2,r2
 4020c20:	e137e704 	addi	r4,fp,-8292
 4020c24:	2085883a 	add	r2,r4,r2
 4020c28:	10800904 	addi	r2,r2,36
 4020c2c:	10800017 	ldw	r2,0(r2)
 4020c30:	18801d26 	beq	r3,r2,4020ca8 <TMEM_Verify+0x420>
                if (bShowMessage){
 4020c34:	e0bfff17 	ldw	r2,-4(fp)
 4020c38:	10001a26 	beq	r2,zero,4020ca4 <TMEM_Verify+0x41c>
                   printf("verify ng, read=%08Xh, expected=%08Xh, i=%Xh\n", (int)szRead[i], (int)szData[i], (int)(nPos/4+i));
 4020c3c:	e0b7e817 	ldw	r2,-8288(fp)
 4020c40:	1085883a 	add	r2,r2,r2
 4020c44:	1085883a 	add	r2,r2,r2
 4020c48:	e0f7e704 	addi	r3,fp,-8292
 4020c4c:	1885883a 	add	r2,r3,r2
 4020c50:	10840a04 	addi	r2,r2,4136
 4020c54:	10800017 	ldw	r2,0(r2)
 4020c58:	100b883a 	mov	r5,r2
 4020c5c:	e0b7e817 	ldw	r2,-8288(fp)
 4020c60:	1085883a 	add	r2,r2,r2
 4020c64:	1085883a 	add	r2,r2,r2
 4020c68:	e137e704 	addi	r4,fp,-8292
 4020c6c:	2085883a 	add	r2,r4,r2
 4020c70:	10800904 	addi	r2,r2,36
 4020c74:	10800017 	ldw	r2,0(r2)
 4020c78:	100d883a 	mov	r6,r2
 4020c7c:	e0b7ec17 	ldw	r2,-8272(fp)
 4020c80:	1006d0ba 	srli	r3,r2,2
 4020c84:	e0b7e817 	ldw	r2,-8288(fp)
 4020c88:	1885883a 	add	r2,r3,r2
 4020c8c:	01000034 	movhi	r4,0
 4020c90:	21000904 	addi	r4,r4,36
 4020c94:	100f883a 	mov	r7,r2
 4020c98:	40212980 	call	4021298 <printf>
                   usleep(50);
 4020c9c:	01000c84 	movi	r4,50
 4020ca0:	402e94c0 	call	402e94c <usleep>
                }   
                bPass = FALSE;
 4020ca4:	e037e715 	stw	zero,-8292(fp)
            nAccessLen = nRemainedLen;
       // memset(szRead, 0xAA, nAccessLen); // reset content    
        memcpy(szRead, pSrc, nAccessLen);
        // verify
        nItemNum = nAccessLen / 4;
        for(i=0;i<nItemNum && bPass;i++){
 4020ca8:	e0b7e817 	ldw	r2,-8288(fp)
 4020cac:	10800044 	addi	r2,r2,1
 4020cb0:	e0b7e815 	stw	r2,-8288(fp)
 4020cb4:	e0f7e817 	ldw	r3,-8288(fp)
 4020cb8:	e0b7ee17 	ldw	r2,-8264(fp)
 4020cbc:	1880022e 	bgeu	r3,r2,4020cc8 <TMEM_Verify+0x440>
 4020cc0:	e0b7e717 	ldw	r2,-8292(fp)
 4020cc4:	103fcc1e 	bne	r2,zero,4020bf8 <__flash_rwdata_start+0xffff0334>
                }   
                bPass = FALSE;
            }    
        }
        //
        pSrc += nItemNum;
 4020cc8:	e0b7ee17 	ldw	r2,-8264(fp)
 4020ccc:	1085883a 	add	r2,r2,r2
 4020cd0:	1085883a 	add	r2,r2,r2
 4020cd4:	1007883a 	mov	r3,r2
 4020cd8:	e0b7eb17 	ldw	r2,-8276(fp)
 4020cdc:	10c5883a 	add	r2,r2,r3
 4020ce0:	e0b7eb15 	stw	r2,-8276(fp)
        nPos += nAccessLen;
 4020ce4:	e0b7e917 	ldw	r2,-8284(fp)
 4020ce8:	e0f7ec17 	ldw	r3,-8272(fp)
 4020cec:	1885883a 	add	r2,r3,r2
 4020cf0:	e0b7ec15 	stw	r2,-8272(fp)

        if (bShowMessage){
 4020cf4:	e0bfff17 	ldw	r2,-4(fp)
 4020cf8:	10001826 	beq	r2,zero,4020d5c <TMEM_Verify+0x4d4>
            if (nProgressIndex <= 9 && nPos >= szProgress[nProgressIndex]){
 4020cfc:	e0b7ed17 	ldw	r2,-8268(fp)
 4020d00:	10800288 	cmpgei	r2,r2,10
 4020d04:	1000151e 	bne	r2,zero,4020d5c <TMEM_Verify+0x4d4>
 4020d08:	e0b7ed17 	ldw	r2,-8268(fp)
 4020d0c:	1085883a 	add	r2,r2,r2
 4020d10:	1085883a 	add	r2,r2,r2
 4020d14:	e0f7e704 	addi	r3,fp,-8292
 4020d18:	1885883a 	add	r2,r3,r2
 4020d1c:	10880b04 	addi	r2,r2,8236
 4020d20:	10800017 	ldw	r2,0(r2)
 4020d24:	e0f7ec17 	ldw	r3,-8272(fp)
 4020d28:	18800c36 	bltu	r3,r2,4020d5c <TMEM_Verify+0x4d4>
                nProgressIndex++;
 4020d2c:	e0b7ed17 	ldw	r2,-8268(fp)
 4020d30:	10800044 	addi	r2,r2,1
 4020d34:	e0b7ed15 	stw	r2,-8268(fp)
                printf("%02d%% ", nProgressIndex*10);
 4020d38:	e137ed17 	ldw	r4,-8268(fp)
 4020d3c:	01400284 	movi	r5,10
 4020d40:	402110c0 	call	402110c <__mulsi3>
 4020d44:	01000034 	movhi	r4,0
 4020d48:	21000304 	addi	r4,r4,12
 4020d4c:	100b883a 	mov	r5,r2
 4020d50:	40212980 	call	4021298 <printf>
                usleep(50);
 4020d54:	01000c84 	movi	r4,50
 4020d58:	402e94c0 	call	402e94c <usleep>
    
    // read & verify
    pSrc = (alt_u32 *)BaseAddr;
    nAccessLen = sizeof(szRead);
    nPos = 0;
    while(bPass && nPos < ByteLen){
 4020d5c:	e0b7e717 	ldw	r2,-8292(fp)
 4020d60:	10000326 	beq	r2,zero,4020d70 <TMEM_Verify+0x4e8>
 4020d64:	e0f7ec17 	ldw	r3,-8272(fp)
 4020d68:	e0bffd17 	ldw	r2,-12(fp)
 4020d6c:	18bf8c36 	bltu	r3,r2,4020ba0 <__flash_rwdata_start+0xffff02dc>
                usleep(50);
            }
        }            
    }     
    
    if (bShowMessage)
 4020d70:	e0bfff17 	ldw	r2,-4(fp)
 4020d74:	10000226 	beq	r2,zero,4020d80 <TMEM_Verify+0x4f8>
        printf("\n");
 4020d78:	01000284 	movi	r4,10
 4020d7c:	40212dc0 	call	40212dc <putchar>
   
    
    return bPass;
 4020d80:	e0b7e717 	ldw	r2,-8292(fp)
}
 4020d84:	e037883a 	mov	sp,fp
 4020d88:	dfc00117 	ldw	ra,4(sp)
 4020d8c:	df000017 	ldw	fp,0(sp)
 4020d90:	dec00204 	addi	sp,sp,8
 4020d94:	f800283a 	ret

04020d98 <TMEM_QuickVerify>:

bool TMEM_QuickVerify(alt_u32 BaseAddr, alt_u32 DataSize, alt_u32 DataWidth, alt_u32 AddrWidth){
 4020d98:	defff104 	addi	sp,sp,-60
 4020d9c:	dfc00e15 	stw	ra,56(sp)
 4020da0:	df000d15 	stw	fp,52(sp)
 4020da4:	df000d04 	addi	fp,sp,52
 4020da8:	e13ffc15 	stw	r4,-16(fp)
 4020dac:	e17ffd15 	stw	r5,-12(fp)
 4020db0:	e1bffe15 	stw	r6,-8(fp)
 4020db4:	e1ffff15 	stw	r7,-4(fp)
    bool bPass = TRUE;
 4020db8:	00800044 	movi	r2,1
 4020dbc:	e0bff315 	stw	r2,-52(fp)
    const alt_u32 TestNum = 1024*512;
 4020dc0:	00800234 	movhi	r2,8
 4020dc4:	e0bff615 	stw	r2,-40(fp)
    const alt_u32 TestPattern = 0xAA;
 4020dc8:	00802a84 	movi	r2,170
 4020dcc:	e0bff715 	stw	r2,-36(fp)
    alt_u32 mask, Read32, Addr32, TestData32, TestAddr32;
    int i;
    
    //alt_u32 *pMem = (alt_u32 *)BaseAddr;
    // test address line
    mask = 0x01;
 4020dd0:	00800044 	movi	r2,1
 4020dd4:	e0bff415 	stw	r2,-48(fp)
    for(i=0;i<AddrWidth && bPass;i++){
 4020dd8:	e03ff515 	stw	zero,-44(fp)
 4020ddc:	00001b06 	br	4020e4c <TMEM_QuickVerify+0xb4>
        //*(pMem + mask) = TestPattern;
        IOWR(BaseAddr, mask, TestPattern);
 4020de0:	e0bff417 	ldw	r2,-48(fp)
 4020de4:	1085883a 	add	r2,r2,r2
 4020de8:	1085883a 	add	r2,r2,r2
 4020dec:	1007883a 	mov	r3,r2
 4020df0:	e0bffc17 	ldw	r2,-16(fp)
 4020df4:	1885883a 	add	r2,r3,r2
 4020df8:	1007883a 	mov	r3,r2
 4020dfc:	e0bff717 	ldw	r2,-36(fp)
 4020e00:	18800035 	stwio	r2,0(r3)
        //if (*(pMem + mask) != TestPattern)
        Read32 = IORD(BaseAddr, mask);
 4020e04:	e0bff417 	ldw	r2,-48(fp)
 4020e08:	1085883a 	add	r2,r2,r2
 4020e0c:	1085883a 	add	r2,r2,r2
 4020e10:	1007883a 	mov	r3,r2
 4020e14:	e0bffc17 	ldw	r2,-16(fp)
 4020e18:	1885883a 	add	r2,r3,r2
 4020e1c:	10800037 	ldwio	r2,0(r2)
 4020e20:	e0bff815 	stw	r2,-32(fp)
        if (Read32 != TestPattern)
 4020e24:	e0fff817 	ldw	r3,-32(fp)
 4020e28:	e0bff717 	ldw	r2,-36(fp)
 4020e2c:	18800126 	beq	r3,r2,4020e34 <TMEM_QuickVerify+0x9c>
            bPass = FALSE;
 4020e30:	e03ff315 	stw	zero,-52(fp)
        mask <<= 1;    
 4020e34:	e0bff417 	ldw	r2,-48(fp)
 4020e38:	1085883a 	add	r2,r2,r2
 4020e3c:	e0bff415 	stw	r2,-48(fp)
    int i;
    
    //alt_u32 *pMem = (alt_u32 *)BaseAddr;
    // test address line
    mask = 0x01;
    for(i=0;i<AddrWidth && bPass;i++){
 4020e40:	e0bff517 	ldw	r2,-44(fp)
 4020e44:	10800044 	addi	r2,r2,1
 4020e48:	e0bff515 	stw	r2,-44(fp)
 4020e4c:	e0fff517 	ldw	r3,-44(fp)
 4020e50:	e0bfff17 	ldw	r2,-4(fp)
 4020e54:	1880022e 	bgeu	r3,r2,4020e60 <TMEM_QuickVerify+0xc8>
 4020e58:	e0bff317 	ldw	r2,-52(fp)
 4020e5c:	103fe01e 	bne	r2,zero,4020de0 <__flash_rwdata_start+0xffff051c>
            bPass = FALSE;
        mask <<= 1;    
    }
    
    // test data line
    mask = 0x01;
 4020e60:	00800044 	movi	r2,1
 4020e64:	e0bff415 	stw	r2,-48(fp)
    for(i=0;i<DataWidth && bPass;i++){
 4020e68:	e03ff515 	stw	zero,-44(fp)
 4020e6c:	00002306 	br	4020efc <TMEM_QuickVerify+0x164>
        //*(pMem+i/32) = mask;
        Addr32 = i*13;
 4020e70:	e13ff517 	ldw	r4,-44(fp)
 4020e74:	01400344 	movi	r5,13
 4020e78:	402110c0 	call	402110c <__mulsi3>
 4020e7c:	e0bff915 	stw	r2,-28(fp)
        IOWR(BaseAddr, Addr32, mask);
 4020e80:	e0bff917 	ldw	r2,-28(fp)
 4020e84:	1085883a 	add	r2,r2,r2
 4020e88:	1085883a 	add	r2,r2,r2
 4020e8c:	1007883a 	mov	r3,r2
 4020e90:	e0bffc17 	ldw	r2,-16(fp)
 4020e94:	1885883a 	add	r2,r3,r2
 4020e98:	1007883a 	mov	r3,r2
 4020e9c:	e0bff417 	ldw	r2,-48(fp)
 4020ea0:	18800035 	stwio	r2,0(r3)
        Read32 = IORD(BaseAddr, Addr32);
 4020ea4:	e0bff917 	ldw	r2,-28(fp)
 4020ea8:	1085883a 	add	r2,r2,r2
 4020eac:	1085883a 	add	r2,r2,r2
 4020eb0:	1007883a 	mov	r3,r2
 4020eb4:	e0bffc17 	ldw	r2,-16(fp)
 4020eb8:	1885883a 	add	r2,r3,r2
 4020ebc:	10800037 	ldwio	r2,0(r2)
 4020ec0:	e0bff815 	stw	r2,-32(fp)
        //if (*(pMem+i/32) != mask)
        if (Read32 != mask)
 4020ec4:	e0fff817 	ldw	r3,-32(fp)
 4020ec8:	e0bff417 	ldw	r2,-48(fp)
 4020ecc:	18800126 	beq	r3,r2,4020ed4 <TMEM_QuickVerify+0x13c>
            bPass = FALSE;
 4020ed0:	e03ff315 	stw	zero,-52(fp)
        mask <<= 1;
 4020ed4:	e0bff417 	ldw	r2,-48(fp)
 4020ed8:	1085883a 	add	r2,r2,r2
 4020edc:	e0bff415 	stw	r2,-48(fp)
        if (mask == 0x00)
 4020ee0:	e0bff417 	ldw	r2,-48(fp)
 4020ee4:	1000021e 	bne	r2,zero,4020ef0 <TMEM_QuickVerify+0x158>
            mask = 0x01;    
 4020ee8:	00800044 	movi	r2,1
 4020eec:	e0bff415 	stw	r2,-48(fp)
        mask <<= 1;    
    }
    
    // test data line
    mask = 0x01;
    for(i=0;i<DataWidth && bPass;i++){
 4020ef0:	e0bff517 	ldw	r2,-44(fp)
 4020ef4:	10800044 	addi	r2,r2,1
 4020ef8:	e0bff515 	stw	r2,-44(fp)
 4020efc:	e0fff517 	ldw	r3,-44(fp)
 4020f00:	e0bffe17 	ldw	r2,-8(fp)
 4020f04:	1880022e 	bgeu	r3,r2,4020f10 <TMEM_QuickVerify+0x178>
 4020f08:	e0bff317 	ldw	r2,-52(fp)
 4020f0c:	103fd81e 	bne	r2,zero,4020e70 <__flash_rwdata_start+0xffff05ac>
 * alt_nticks() returns the elapsed number of system clock ticks since reset.
 */

static ALT_INLINE alt_u32 ALT_ALWAYS_INLINE alt_nticks (void)
{
  return _alt_nticks;
 4020f10:	00800034 	movhi	r2,0
 4020f14:	1087a404 	addi	r2,r2,7824
 4020f18:	10800017 	ldw	r2,0(r2)
        if (mask == 0x00)
            mask = 0x01;    
    }
    
    // random data test
    srand(alt_nticks());
 4020f1c:	1009883a 	mov	r4,r2
 4020f20:	40213b00 	call	40213b0 <srand>
    for(i=0;i<TestNum && bPass;i++){
 4020f24:	e03ff515 	stw	zero,-44(fp)
 4020f28:	00002206 	br	4020fb4 <TMEM_QuickVerify+0x21c>
        TestAddr32 = rand()%(DataSize/4);
 4020f2c:	40213c80 	call	40213c8 <rand>
 4020f30:	1007883a 	mov	r3,r2
 4020f34:	e0bffd17 	ldw	r2,-12(fp)
 4020f38:	1004d0ba 	srli	r2,r2,2
 4020f3c:	1809883a 	mov	r4,r3
 4020f40:	100b883a 	mov	r5,r2
 4020f44:	40211040 	call	4021104 <__umodsi3>
 4020f48:	e0bffa15 	stw	r2,-24(fp)
        TestData32 = rand();
 4020f4c:	40213c80 	call	40213c8 <rand>
 4020f50:	e0bffb15 	stw	r2,-20(fp)
        IOWR(BaseAddr, TestAddr32, TestData32);
 4020f54:	e0bffa17 	ldw	r2,-24(fp)
 4020f58:	1085883a 	add	r2,r2,r2
 4020f5c:	1085883a 	add	r2,r2,r2
 4020f60:	1007883a 	mov	r3,r2
 4020f64:	e0bffc17 	ldw	r2,-16(fp)
 4020f68:	1885883a 	add	r2,r3,r2
 4020f6c:	1007883a 	mov	r3,r2
 4020f70:	e0bffb17 	ldw	r2,-20(fp)
 4020f74:	18800035 	stwio	r2,0(r3)
        Read32 = IORD(BaseAddr, TestAddr32);
 4020f78:	e0bffa17 	ldw	r2,-24(fp)
 4020f7c:	1085883a 	add	r2,r2,r2
 4020f80:	1085883a 	add	r2,r2,r2
 4020f84:	1007883a 	mov	r3,r2
 4020f88:	e0bffc17 	ldw	r2,-16(fp)
 4020f8c:	1885883a 	add	r2,r3,r2
 4020f90:	10800037 	ldwio	r2,0(r2)
 4020f94:	e0bff815 	stw	r2,-32(fp)
        if (Read32 != TestData32)
 4020f98:	e0fff817 	ldw	r3,-32(fp)
 4020f9c:	e0bffb17 	ldw	r2,-20(fp)
 4020fa0:	18800126 	beq	r3,r2,4020fa8 <TMEM_QuickVerify+0x210>
            bPass = FALSE;        
 4020fa4:	e03ff315 	stw	zero,-52(fp)
            mask = 0x01;    
    }
    
    // random data test
    srand(alt_nticks());
    for(i=0;i<TestNum && bPass;i++){
 4020fa8:	e0bff517 	ldw	r2,-44(fp)
 4020fac:	10800044 	addi	r2,r2,1
 4020fb0:	e0bff515 	stw	r2,-44(fp)
 4020fb4:	e0fff517 	ldw	r3,-44(fp)
 4020fb8:	e0bff617 	ldw	r2,-40(fp)
 4020fbc:	1880022e 	bgeu	r3,r2,4020fc8 <TMEM_QuickVerify+0x230>
 4020fc0:	e0bff317 	ldw	r2,-52(fp)
 4020fc4:	103fd91e 	bne	r2,zero,4020f2c <__flash_rwdata_start+0xffff0668>
        if (Read32 != TestData32)
            bPass = FALSE;        
        
    }
    
    return bPass;
 4020fc8:	e0bff317 	ldw	r2,-52(fp)
}
 4020fcc:	e037883a 	mov	sp,fp
 4020fd0:	dfc00117 	ldw	ra,4(sp)
 4020fd4:	df000017 	ldw	fp,0(sp)
 4020fd8:	dec00204 	addi	sp,sp,8
 4020fdc:	f800283a 	ret

04020fe0 <udivmodsi4>:
 4020fe0:	2900182e 	bgeu	r5,r4,4021044 <udivmodsi4+0x64>
 4020fe4:	28001716 	blt	r5,zero,4021044 <udivmodsi4+0x64>
 4020fe8:	00800804 	movi	r2,32
 4020fec:	00c00044 	movi	r3,1
 4020ff0:	00000206 	br	4020ffc <udivmodsi4+0x1c>
 4020ff4:	10001126 	beq	r2,zero,402103c <udivmodsi4+0x5c>
 4020ff8:	28000516 	blt	r5,zero,4021010 <udivmodsi4+0x30>
 4020ffc:	294b883a 	add	r5,r5,r5
 4021000:	10bfffc4 	addi	r2,r2,-1
 4021004:	18c7883a 	add	r3,r3,r3
 4021008:	293ffa36 	bltu	r5,r4,4020ff4 <__flash_rwdata_start+0xffff0730>
 402100c:	18000b26 	beq	r3,zero,402103c <udivmodsi4+0x5c>
 4021010:	0005883a 	mov	r2,zero
 4021014:	21400236 	bltu	r4,r5,4021020 <udivmodsi4+0x40>
 4021018:	2149c83a 	sub	r4,r4,r5
 402101c:	10c4b03a 	or	r2,r2,r3
 4021020:	1806d07a 	srli	r3,r3,1
 4021024:	280ad07a 	srli	r5,r5,1
 4021028:	183ffa1e 	bne	r3,zero,4021014 <__flash_rwdata_start+0xffff0750>
 402102c:	3000011e 	bne	r6,zero,4021034 <udivmodsi4+0x54>
 4021030:	f800283a 	ret
 4021034:	2005883a 	mov	r2,r4
 4021038:	f800283a 	ret
 402103c:	0005883a 	mov	r2,zero
 4021040:	003ffa06 	br	402102c <__flash_rwdata_start+0xffff0768>
 4021044:	00c00044 	movi	r3,1
 4021048:	003ff106 	br	4021010 <__flash_rwdata_start+0xffff074c>

0402104c <__divsi3>:
 402104c:	defffe04 	addi	sp,sp,-8
 4021050:	dfc00115 	stw	ra,4(sp)
 4021054:	dc000015 	stw	r16,0(sp)
 4021058:	20000b16 	blt	r4,zero,4021088 <__divsi3+0x3c>
 402105c:	0021883a 	mov	r16,zero
 4021060:	28000c16 	blt	r5,zero,4021094 <__divsi3+0x48>
 4021064:	000d883a 	mov	r6,zero
 4021068:	4020fe00 	call	4020fe0 <udivmodsi4>
 402106c:	0407c83a 	sub	r3,zero,r16
 4021070:	1884f03a 	xor	r2,r3,r2
 4021074:	1405883a 	add	r2,r2,r16
 4021078:	dfc00117 	ldw	ra,4(sp)
 402107c:	dc000017 	ldw	r16,0(sp)
 4021080:	dec00204 	addi	sp,sp,8
 4021084:	f800283a 	ret
 4021088:	0109c83a 	sub	r4,zero,r4
 402108c:	04000044 	movi	r16,1
 4021090:	283ff40e 	bge	r5,zero,4021064 <__flash_rwdata_start+0xffff07a0>
 4021094:	014bc83a 	sub	r5,zero,r5
 4021098:	8400005c 	xori	r16,r16,1
 402109c:	003ff106 	br	4021064 <__flash_rwdata_start+0xffff07a0>

040210a0 <__modsi3>:
 40210a0:	defffd04 	addi	sp,sp,-12
 40210a4:	dfc00215 	stw	ra,8(sp)
 40210a8:	dc400115 	stw	r17,4(sp)
 40210ac:	dc000015 	stw	r16,0(sp)
 40210b0:	20000c16 	blt	r4,zero,40210e4 <__modsi3+0x44>
 40210b4:	0023883a 	mov	r17,zero
 40210b8:	0021883a 	mov	r16,zero
 40210bc:	28000d16 	blt	r5,zero,40210f4 <__modsi3+0x54>
 40210c0:	01800044 	movi	r6,1
 40210c4:	4020fe00 	call	4020fe0 <udivmodsi4>
 40210c8:	1404f03a 	xor	r2,r2,r16
 40210cc:	8885883a 	add	r2,r17,r2
 40210d0:	dfc00217 	ldw	ra,8(sp)
 40210d4:	dc400117 	ldw	r17,4(sp)
 40210d8:	dc000017 	ldw	r16,0(sp)
 40210dc:	dec00304 	addi	sp,sp,12
 40210e0:	f800283a 	ret
 40210e4:	0109c83a 	sub	r4,zero,r4
 40210e8:	04400044 	movi	r17,1
 40210ec:	043fffc4 	movi	r16,-1
 40210f0:	283ff30e 	bge	r5,zero,40210c0 <__flash_rwdata_start+0xffff07fc>
 40210f4:	014bc83a 	sub	r5,zero,r5
 40210f8:	003ff106 	br	40210c0 <__flash_rwdata_start+0xffff07fc>

040210fc <__udivsi3>:
 40210fc:	000d883a 	mov	r6,zero
 4021100:	4020fe01 	jmpi	4020fe0 <udivmodsi4>

04021104 <__umodsi3>:
 4021104:	01800044 	movi	r6,1
 4021108:	4020fe01 	jmpi	4020fe0 <udivmodsi4>

0402110c <__mulsi3>:
 402110c:	0005883a 	mov	r2,zero
 4021110:	20000726 	beq	r4,zero,4021130 <__mulsi3+0x24>
 4021114:	20c0004c 	andi	r3,r4,1
 4021118:	2008d07a 	srli	r4,r4,1
 402111c:	18000126 	beq	r3,zero,4021124 <__mulsi3+0x18>
 4021120:	1145883a 	add	r2,r2,r5
 4021124:	294b883a 	add	r5,r5,r5
 4021128:	203ffa1e 	bne	r4,zero,4021114 <__flash_rwdata_start+0xffff0850>
 402112c:	f800283a 	ret
 4021130:	f800283a 	ret

04021134 <memcpy>:
 4021134:	deffff04 	addi	sp,sp,-4
 4021138:	dc000015 	stw	r16,0(sp)
 402113c:	00c003c4 	movi	r3,15
 4021140:	2005883a 	mov	r2,r4
 4021144:	1980432e 	bgeu	r3,r6,4021254 <memcpy+0x120>
 4021148:	2146b03a 	or	r3,r4,r5
 402114c:	18c000cc 	andi	r3,r3,3
 4021150:	1800421e 	bne	r3,zero,402125c <memcpy+0x128>
 4021154:	343ffc04 	addi	r16,r6,-16
 4021158:	8020d13a 	srli	r16,r16,4
 402115c:	28c00104 	addi	r3,r5,4
 4021160:	23400104 	addi	r13,r4,4
 4021164:	801e913a 	slli	r15,r16,4
 4021168:	2b000204 	addi	r12,r5,8
 402116c:	22c00204 	addi	r11,r4,8
 4021170:	7bc00504 	addi	r15,r15,20
 4021174:	2a800304 	addi	r10,r5,12
 4021178:	22400304 	addi	r9,r4,12
 402117c:	2bdf883a 	add	r15,r5,r15
 4021180:	2811883a 	mov	r8,r5
 4021184:	200f883a 	mov	r7,r4
 4021188:	41000017 	ldw	r4,0(r8)
 402118c:	39c00404 	addi	r7,r7,16
 4021190:	18c00404 	addi	r3,r3,16
 4021194:	393ffc15 	stw	r4,-16(r7)
 4021198:	1bbffc17 	ldw	r14,-16(r3)
 402119c:	6b400404 	addi	r13,r13,16
 40211a0:	5ac00404 	addi	r11,r11,16
 40211a4:	6bbffc15 	stw	r14,-16(r13)
 40211a8:	63800017 	ldw	r14,0(r12)
 40211ac:	4a400404 	addi	r9,r9,16
 40211b0:	42000404 	addi	r8,r8,16
 40211b4:	5bbffc15 	stw	r14,-16(r11)
 40211b8:	53800017 	ldw	r14,0(r10)
 40211bc:	63000404 	addi	r12,r12,16
 40211c0:	52800404 	addi	r10,r10,16
 40211c4:	4bbffc15 	stw	r14,-16(r9)
 40211c8:	1bffef1e 	bne	r3,r15,4021188 <__flash_rwdata_start+0xffff08c4>
 40211cc:	81c00044 	addi	r7,r16,1
 40211d0:	380e913a 	slli	r7,r7,4
 40211d4:	310003cc 	andi	r4,r6,15
 40211d8:	02c000c4 	movi	r11,3
 40211dc:	11c7883a 	add	r3,r2,r7
 40211e0:	29cb883a 	add	r5,r5,r7
 40211e4:	59001f2e 	bgeu	r11,r4,4021264 <memcpy+0x130>
 40211e8:	1813883a 	mov	r9,r3
 40211ec:	2811883a 	mov	r8,r5
 40211f0:	200f883a 	mov	r7,r4
 40211f4:	42800017 	ldw	r10,0(r8)
 40211f8:	4a400104 	addi	r9,r9,4
 40211fc:	39ffff04 	addi	r7,r7,-4
 4021200:	4abfff15 	stw	r10,-4(r9)
 4021204:	42000104 	addi	r8,r8,4
 4021208:	59fffa36 	bltu	r11,r7,40211f4 <__flash_rwdata_start+0xffff0930>
 402120c:	213fff04 	addi	r4,r4,-4
 4021210:	2008d0ba 	srli	r4,r4,2
 4021214:	318000cc 	andi	r6,r6,3
 4021218:	21000044 	addi	r4,r4,1
 402121c:	2109883a 	add	r4,r4,r4
 4021220:	2109883a 	add	r4,r4,r4
 4021224:	1907883a 	add	r3,r3,r4
 4021228:	290b883a 	add	r5,r5,r4
 402122c:	30000626 	beq	r6,zero,4021248 <memcpy+0x114>
 4021230:	198d883a 	add	r6,r3,r6
 4021234:	29c00003 	ldbu	r7,0(r5)
 4021238:	18c00044 	addi	r3,r3,1
 402123c:	29400044 	addi	r5,r5,1
 4021240:	19ffffc5 	stb	r7,-1(r3)
 4021244:	19bffb1e 	bne	r3,r6,4021234 <__flash_rwdata_start+0xffff0970>
 4021248:	dc000017 	ldw	r16,0(sp)
 402124c:	dec00104 	addi	sp,sp,4
 4021250:	f800283a 	ret
 4021254:	2007883a 	mov	r3,r4
 4021258:	003ff406 	br	402122c <__flash_rwdata_start+0xffff0968>
 402125c:	2007883a 	mov	r3,r4
 4021260:	003ff306 	br	4021230 <__flash_rwdata_start+0xffff096c>
 4021264:	200d883a 	mov	r6,r4
 4021268:	003ff006 	br	402122c <__flash_rwdata_start+0xffff0968>

0402126c <_printf_r>:
 402126c:	defffd04 	addi	sp,sp,-12
 4021270:	dfc00015 	stw	ra,0(sp)
 4021274:	d9800115 	stw	r6,4(sp)
 4021278:	d9c00215 	stw	r7,8(sp)
 402127c:	280d883a 	mov	r6,r5
 4021280:	21400217 	ldw	r5,8(r4)
 4021284:	d9c00104 	addi	r7,sp,4
 4021288:	40214c40 	call	40214c4 <___vfprintf_internal_r>
 402128c:	dfc00017 	ldw	ra,0(sp)
 4021290:	dec00304 	addi	sp,sp,12
 4021294:	f800283a 	ret

04021298 <printf>:
 4021298:	defffc04 	addi	sp,sp,-16
 402129c:	dfc00015 	stw	ra,0(sp)
 40212a0:	d9400115 	stw	r5,4(sp)
 40212a4:	d9800215 	stw	r6,8(sp)
 40212a8:	d9c00315 	stw	r7,12(sp)
 40212ac:	00800034 	movhi	r2,0
 40212b0:	10878604 	addi	r2,r2,7704
 40212b4:	10800017 	ldw	r2,0(r2)
 40212b8:	200b883a 	mov	r5,r4
 40212bc:	d9800104 	addi	r6,sp,4
 40212c0:	11000217 	ldw	r4,8(r2)
 40212c4:	402351c0 	call	402351c <__vfprintf_internal>
 40212c8:	dfc00017 	ldw	ra,0(sp)
 40212cc:	dec00404 	addi	sp,sp,16
 40212d0:	f800283a 	ret

040212d4 <_putchar_r>:
 40212d4:	21800217 	ldw	r6,8(r4)
 40212d8:	4027f501 	jmpi	4027f50 <_putc_r>

040212dc <putchar>:
 40212dc:	00800034 	movhi	r2,0
 40212e0:	10878604 	addi	r2,r2,7704
 40212e4:	200b883a 	mov	r5,r4
 40212e8:	11000017 	ldw	r4,0(r2)
 40212ec:	21800217 	ldw	r6,8(r4)
 40212f0:	4027f501 	jmpi	4027f50 <_putc_r>

040212f4 <_puts_r>:
 40212f4:	defff604 	addi	sp,sp,-40
 40212f8:	dc000715 	stw	r16,28(sp)
 40212fc:	2021883a 	mov	r16,r4
 4021300:	2809883a 	mov	r4,r5
 4021304:	dc400815 	stw	r17,32(sp)
 4021308:	dfc00915 	stw	ra,36(sp)
 402130c:	2823883a 	mov	r17,r5
 4021310:	402142c0 	call	402142c <strlen>
 4021314:	81400217 	ldw	r5,8(r16)
 4021318:	11000044 	addi	r4,r2,1
 402131c:	d8800115 	stw	r2,4(sp)
 4021320:	00800034 	movhi	r2,0
 4021324:	2980030b 	ldhu	r6,12(r5)
 4021328:	10801504 	addi	r2,r2,84
 402132c:	d8800215 	stw	r2,8(sp)
 4021330:	00800044 	movi	r2,1
 4021334:	d8800315 	stw	r2,12(sp)
 4021338:	00800084 	movi	r2,2
 402133c:	d8800515 	stw	r2,20(sp)
 4021340:	dc400015 	stw	r17,0(sp)
 4021344:	d9000615 	stw	r4,24(sp)
 4021348:	dec00415 	stw	sp,16(sp)
 402134c:	3088000c 	andi	r2,r6,8192
 4021350:	1000061e 	bne	r2,zero,402136c <_puts_r+0x78>
 4021354:	29001917 	ldw	r4,100(r5)
 4021358:	00b7ffc4 	movi	r2,-8193
 402135c:	31880014 	ori	r6,r6,8192
 4021360:	2084703a 	and	r2,r4,r2
 4021364:	2980030d 	sth	r6,12(r5)
 4021368:	28801915 	stw	r2,100(r5)
 402136c:	8009883a 	mov	r4,r16
 4021370:	d9800404 	addi	r6,sp,16
 4021374:	4025af80 	call	4025af8 <__sfvwrite_r>
 4021378:	1000061e 	bne	r2,zero,4021394 <_puts_r+0xa0>
 402137c:	00800284 	movi	r2,10
 4021380:	dfc00917 	ldw	ra,36(sp)
 4021384:	dc400817 	ldw	r17,32(sp)
 4021388:	dc000717 	ldw	r16,28(sp)
 402138c:	dec00a04 	addi	sp,sp,40
 4021390:	f800283a 	ret
 4021394:	00bfffc4 	movi	r2,-1
 4021398:	003ff906 	br	4021380 <__flash_rwdata_start+0xffff0abc>

0402139c <puts>:
 402139c:	00800034 	movhi	r2,0
 40213a0:	10878604 	addi	r2,r2,7704
 40213a4:	200b883a 	mov	r5,r4
 40213a8:	11000017 	ldw	r4,0(r2)
 40213ac:	40212f41 	jmpi	40212f4 <_puts_r>

040213b0 <srand>:
 40213b0:	00800034 	movhi	r2,0
 40213b4:	10878604 	addi	r2,r2,7704
 40213b8:	10800017 	ldw	r2,0(r2)
 40213bc:	11002915 	stw	r4,164(r2)
 40213c0:	10002a15 	stw	zero,168(r2)
 40213c4:	f800283a 	ret

040213c8 <rand>:
 40213c8:	00800034 	movhi	r2,0
 40213cc:	defffe04 	addi	sp,sp,-8
 40213d0:	10878604 	addi	r2,r2,7704
 40213d4:	dc000015 	stw	r16,0(sp)
 40213d8:	14000017 	ldw	r16,0(r2)
 40213dc:	dfc00115 	stw	ra,4(sp)
 40213e0:	01932574 	movhi	r6,19605
 40213e4:	81002917 	ldw	r4,164(r16)
 40213e8:	81402a17 	ldw	r5,168(r16)
 40213ec:	01d614b4 	movhi	r7,22610
 40213f0:	319fcb44 	addi	r6,r6,32557
 40213f4:	39fd0b44 	addi	r7,r7,-3027
 40213f8:	402a6bc0 	call	402a6bc <__muldi3>
 40213fc:	11000044 	addi	r4,r2,1
 4021400:	2085803a 	cmpltu	r2,r4,r2
 4021404:	10c7883a 	add	r3,r2,r3
 4021408:	00a00034 	movhi	r2,32768
 402140c:	10bfffc4 	addi	r2,r2,-1
 4021410:	1884703a 	and	r2,r3,r2
 4021414:	81002915 	stw	r4,164(r16)
 4021418:	80c02a15 	stw	r3,168(r16)
 402141c:	dfc00117 	ldw	ra,4(sp)
 4021420:	dc000017 	ldw	r16,0(sp)
 4021424:	dec00204 	addi	sp,sp,8
 4021428:	f800283a 	ret

0402142c <strlen>:
 402142c:	208000cc 	andi	r2,r4,3
 4021430:	10002026 	beq	r2,zero,40214b4 <strlen+0x88>
 4021434:	20800007 	ldb	r2,0(r4)
 4021438:	10002026 	beq	r2,zero,40214bc <strlen+0x90>
 402143c:	2005883a 	mov	r2,r4
 4021440:	00000206 	br	402144c <strlen+0x20>
 4021444:	10c00007 	ldb	r3,0(r2)
 4021448:	18001826 	beq	r3,zero,40214ac <strlen+0x80>
 402144c:	10800044 	addi	r2,r2,1
 4021450:	10c000cc 	andi	r3,r2,3
 4021454:	183ffb1e 	bne	r3,zero,4021444 <__flash_rwdata_start+0xffff0b80>
 4021458:	10c00017 	ldw	r3,0(r2)
 402145c:	01ffbff4 	movhi	r7,65279
 4021460:	39ffbfc4 	addi	r7,r7,-257
 4021464:	00ca303a 	nor	r5,zero,r3
 4021468:	01a02074 	movhi	r6,32897
 402146c:	19c7883a 	add	r3,r3,r7
 4021470:	31a02004 	addi	r6,r6,-32640
 4021474:	1946703a 	and	r3,r3,r5
 4021478:	1986703a 	and	r3,r3,r6
 402147c:	1800091e 	bne	r3,zero,40214a4 <strlen+0x78>
 4021480:	10800104 	addi	r2,r2,4
 4021484:	10c00017 	ldw	r3,0(r2)
 4021488:	19cb883a 	add	r5,r3,r7
 402148c:	00c6303a 	nor	r3,zero,r3
 4021490:	28c6703a 	and	r3,r5,r3
 4021494:	1986703a 	and	r3,r3,r6
 4021498:	183ff926 	beq	r3,zero,4021480 <__flash_rwdata_start+0xffff0bbc>
 402149c:	00000106 	br	40214a4 <strlen+0x78>
 40214a0:	10800044 	addi	r2,r2,1
 40214a4:	10c00007 	ldb	r3,0(r2)
 40214a8:	183ffd1e 	bne	r3,zero,40214a0 <__flash_rwdata_start+0xffff0bdc>
 40214ac:	1105c83a 	sub	r2,r2,r4
 40214b0:	f800283a 	ret
 40214b4:	2005883a 	mov	r2,r4
 40214b8:	003fe706 	br	4021458 <__flash_rwdata_start+0xffff0b94>
 40214bc:	0005883a 	mov	r2,zero
 40214c0:	f800283a 	ret

040214c4 <___vfprintf_internal_r>:
 40214c4:	deffb604 	addi	sp,sp,-296
 40214c8:	dfc04915 	stw	ra,292(sp)
 40214cc:	ddc04715 	stw	r23,284(sp)
 40214d0:	dd804615 	stw	r22,280(sp)
 40214d4:	202f883a 	mov	r23,r4
 40214d8:	282d883a 	mov	r22,r5
 40214dc:	d9802a15 	stw	r6,168(sp)
 40214e0:	d9c02d15 	stw	r7,180(sp)
 40214e4:	df004815 	stw	fp,288(sp)
 40214e8:	dd404515 	stw	r21,276(sp)
 40214ec:	dd004415 	stw	r20,272(sp)
 40214f0:	dcc04315 	stw	r19,268(sp)
 40214f4:	dc804215 	stw	r18,264(sp)
 40214f8:	dc404115 	stw	r17,260(sp)
 40214fc:	dc004015 	stw	r16,256(sp)
 4021500:	40261f80 	call	40261f8 <_localeconv_r>
 4021504:	10800017 	ldw	r2,0(r2)
 4021508:	1009883a 	mov	r4,r2
 402150c:	d8803515 	stw	r2,212(sp)
 4021510:	402142c0 	call	402142c <strlen>
 4021514:	d8803815 	stw	r2,224(sp)
 4021518:	b8000226 	beq	r23,zero,4021524 <___vfprintf_internal_r+0x60>
 402151c:	b8800e17 	ldw	r2,56(r23)
 4021520:	1000e226 	beq	r2,zero,40218ac <___vfprintf_internal_r+0x3e8>
 4021524:	b080030b 	ldhu	r2,12(r22)
 4021528:	10c8000c 	andi	r3,r2,8192
 402152c:	1800061e 	bne	r3,zero,4021548 <___vfprintf_internal_r+0x84>
 4021530:	b1001917 	ldw	r4,100(r22)
 4021534:	00f7ffc4 	movi	r3,-8193
 4021538:	10880014 	ori	r2,r2,8192
 402153c:	20c6703a 	and	r3,r4,r3
 4021540:	b080030d 	sth	r2,12(r22)
 4021544:	b0c01915 	stw	r3,100(r22)
 4021548:	10c0020c 	andi	r3,r2,8
 402154c:	1800a826 	beq	r3,zero,40217f0 <___vfprintf_internal_r+0x32c>
 4021550:	b0c00417 	ldw	r3,16(r22)
 4021554:	1800a626 	beq	r3,zero,40217f0 <___vfprintf_internal_r+0x32c>
 4021558:	1080068c 	andi	r2,r2,26
 402155c:	00c00284 	movi	r3,10
 4021560:	10c0ab26 	beq	r2,r3,4021810 <___vfprintf_internal_r+0x34c>
 4021564:	d8801e04 	addi	r2,sp,120
 4021568:	d8c01dc4 	addi	r3,sp,119
 402156c:	d9000404 	addi	r4,sp,16
 4021570:	05000034 	movhi	r20,0
 4021574:	10cbc83a 	sub	r5,r2,r3
 4021578:	a5002684 	addi	r20,r20,154
 402157c:	d8802815 	stw	r2,160(sp)
 4021580:	d8c02915 	stw	r3,164(sp)
 4021584:	d9001e15 	stw	r4,120(sp)
 4021588:	d8002015 	stw	zero,128(sp)
 402158c:	d8001f15 	stw	zero,124(sp)
 4021590:	d8003315 	stw	zero,204(sp)
 4021594:	d8003715 	stw	zero,220(sp)
 4021598:	d8003915 	stw	zero,228(sp)
 402159c:	2011883a 	mov	r8,r4
 40215a0:	d8003b15 	stw	zero,236(sp)
 40215a4:	d8003a15 	stw	zero,232(sp)
 40215a8:	d8002f15 	stw	zero,188(sp)
 40215ac:	d9403c15 	stw	r5,240(sp)
 40215b0:	d8c02a17 	ldw	r3,168(sp)
 40215b4:	18800007 	ldb	r2,0(r3)
 40215b8:	1001f226 	beq	r2,zero,4021d84 <___vfprintf_internal_r+0x8c0>
 40215bc:	00c00944 	movi	r3,37
 40215c0:	dc002a17 	ldw	r16,168(sp)
 40215c4:	10c0021e 	bne	r2,r3,40215d0 <___vfprintf_internal_r+0x10c>
 40215c8:	00001606 	br	4021624 <___vfprintf_internal_r+0x160>
 40215cc:	10c08526 	beq	r2,r3,40217e4 <___vfprintf_internal_r+0x320>
 40215d0:	84000044 	addi	r16,r16,1
 40215d4:	80800007 	ldb	r2,0(r16)
 40215d8:	103ffc1e 	bne	r2,zero,40215cc <__flash_rwdata_start+0xffff0d08>
 40215dc:	d9002a17 	ldw	r4,168(sp)
 40215e0:	8123c83a 	sub	r17,r16,r4
 40215e4:	88000f26 	beq	r17,zero,4021624 <___vfprintf_internal_r+0x160>
 40215e8:	d8802a17 	ldw	r2,168(sp)
 40215ec:	d8c02017 	ldw	r3,128(sp)
 40215f0:	44400115 	stw	r17,4(r8)
 40215f4:	40800015 	stw	r2,0(r8)
 40215f8:	d8801f17 	ldw	r2,124(sp)
 40215fc:	1c47883a 	add	r3,r3,r17
 4021600:	d8c02015 	stw	r3,128(sp)
 4021604:	10800044 	addi	r2,r2,1
 4021608:	d8801f15 	stw	r2,124(sp)
 402160c:	00c001c4 	movi	r3,7
 4021610:	18809416 	blt	r3,r2,4021864 <___vfprintf_internal_r+0x3a0>
 4021614:	42000204 	addi	r8,r8,8
 4021618:	d8c02f17 	ldw	r3,188(sp)
 402161c:	1c47883a 	add	r3,r3,r17
 4021620:	d8c02f15 	stw	r3,188(sp)
 4021624:	80800007 	ldb	r2,0(r16)
 4021628:	10009526 	beq	r2,zero,4021880 <___vfprintf_internal_r+0x3bc>
 402162c:	80800044 	addi	r2,r16,1
 4021630:	84000047 	ldb	r16,1(r16)
 4021634:	0027883a 	mov	r19,zero
 4021638:	0039883a 	mov	fp,zero
 402163c:	dcc02b05 	stb	r19,172(sp)
 4021640:	d8002785 	stb	zero,158(sp)
 4021644:	027fffc4 	movi	r9,-1
 4021648:	d8002e15 	stw	zero,184(sp)
 402164c:	04401604 	movi	r17,88
 4021650:	04800244 	movi	r18,9
 4021654:	da002a15 	stw	r8,168(sp)
 4021658:	e027883a 	mov	r19,fp
 402165c:	17000044 	addi	fp,r2,1
 4021660:	80bff804 	addi	r2,r16,-32
 4021664:	8882ed36 	bltu	r17,r2,402221c <___vfprintf_internal_r+0xd58>
 4021668:	100490ba 	slli	r2,r2,2
 402166c:	010100b4 	movhi	r4,1026
 4021670:	2105a004 	addi	r4,r4,5760
 4021674:	1105883a 	add	r2,r2,r4
 4021678:	10800017 	ldw	r2,0(r2)
 402167c:	1000683a 	jmp	r2
 4021680:	04022064 	muli	r16,zero,2177
 4021684:	0402221c 	xori	r16,zero,2184
 4021688:	0402221c 	xori	r16,zero,2184
 402168c:	04022080 	call	402208 <_gp+0x3f8410>
 4021690:	0402221c 	xori	r16,zero,2184
 4021694:	0402221c 	xori	r16,zero,2184
 4021698:	0402221c 	xori	r16,zero,2184
 402169c:	0402221c 	xori	r16,zero,2184
 40216a0:	0402221c 	xori	r16,zero,2184
 40216a4:	0402221c 	xori	r16,zero,2184
 40216a8:	04022090 	cmplti	r16,zero,2178
 40216ac:	040220b8 	rdprs	r16,zero,2178
 40216b0:	0402221c 	xori	r16,zero,2184
 40216b4:	040218b8 	rdprs	r16,zero,2146
 40216b8:	040218c8 	cmpgei	r16,zero,2147
 40216bc:	0402221c 	xori	r16,zero,2184
 40216c0:	04021918 	cmpnei	r16,zero,2148
 40216c4:	04021928 	cmpgeui	r16,zero,2148
 40216c8:	04021928 	cmpgeui	r16,zero,2148
 40216cc:	04021928 	cmpgeui	r16,zero,2148
 40216d0:	04021928 	cmpgeui	r16,zero,2148
 40216d4:	04021928 	cmpgeui	r16,zero,2148
 40216d8:	04021928 	cmpgeui	r16,zero,2148
 40216dc:	04021928 	cmpgeui	r16,zero,2148
 40216e0:	04021928 	cmpgeui	r16,zero,2148
 40216e4:	04021928 	cmpgeui	r16,zero,2148
 40216e8:	0402221c 	xori	r16,zero,2184
 40216ec:	0402221c 	xori	r16,zero,2184
 40216f0:	0402221c 	xori	r16,zero,2184
 40216f4:	0402221c 	xori	r16,zero,2184
 40216f8:	0402221c 	xori	r16,zero,2184
 40216fc:	0402221c 	xori	r16,zero,2184
 4021700:	0402221c 	xori	r16,zero,2184
 4021704:	0402221c 	xori	r16,zero,2184
 4021708:	0402221c 	xori	r16,zero,2184
 402170c:	0402221c 	xori	r16,zero,2184
 4021710:	0402196c 	andhi	r16,zero,2149
 4021714:	04021d8c 	andi	r16,zero,2166
 4021718:	0402221c 	xori	r16,zero,2184
 402171c:	04021d8c 	andi	r16,zero,2166
 4021720:	0402221c 	xori	r16,zero,2184
 4021724:	0402221c 	xori	r16,zero,2184
 4021728:	0402221c 	xori	r16,zero,2184
 402172c:	0402221c 	xori	r16,zero,2184
 4021730:	04021e34 	movhi	r16,2168
 4021734:	0402221c 	xori	r16,zero,2184
 4021738:	0402221c 	xori	r16,zero,2184
 402173c:	04021e44 	movi	r16,2169
 4021740:	0402221c 	xori	r16,zero,2184
 4021744:	0402221c 	xori	r16,zero,2184
 4021748:	0402221c 	xori	r16,zero,2184
 402174c:	0402221c 	xori	r16,zero,2184
 4021750:	0402221c 	xori	r16,zero,2184
 4021754:	04021e84 	movi	r16,2170
 4021758:	0402221c 	xori	r16,zero,2184
 402175c:	0402221c 	xori	r16,zero,2184
 4021760:	04021fb0 	cmpltui	r16,zero,2174
 4021764:	0402221c 	xori	r16,zero,2184
 4021768:	0402221c 	xori	r16,zero,2184
 402176c:	0402221c 	xori	r16,zero,2184
 4021770:	0402221c 	xori	r16,zero,2184
 4021774:	0402221c 	xori	r16,zero,2184
 4021778:	0402221c 	xori	r16,zero,2184
 402177c:	0402221c 	xori	r16,zero,2184
 4021780:	0402221c 	xori	r16,zero,2184
 4021784:	0402221c 	xori	r16,zero,2184
 4021788:	0402221c 	xori	r16,zero,2184
 402178c:	04022018 	cmpnei	r16,zero,2176
 4021790:	04021f04 	movi	r16,2172
 4021794:	04021d8c 	andi	r16,zero,2166
 4021798:	04021d8c 	andi	r16,zero,2166
 402179c:	04021d8c 	andi	r16,zero,2166
 40217a0:	04021f48 	cmpgei	r16,zero,2173
 40217a4:	04021f04 	movi	r16,2172
 40217a8:	0402221c 	xori	r16,zero,2184
 40217ac:	0402221c 	xori	r16,zero,2184
 40217b0:	04021f58 	cmpnei	r16,zero,2173
 40217b4:	0402221c 	xori	r16,zero,2184
 40217b8:	04021f70 	cmpltui	r16,zero,2173
 40217bc:	040221e0 	cmpeqi	r16,zero,2183
 40217c0:	04021eb8 	rdprs	r16,zero,2170
 40217c4:	04022194 	movui	r16,2182
 40217c8:	0402221c 	xori	r16,zero,2184
 40217cc:	040220cc 	andi	r16,zero,2179
 40217d0:	0402221c 	xori	r16,zero,2184
 40217d4:	040221a4 	muli	r16,zero,2182
 40217d8:	0402221c 	xori	r16,zero,2184
 40217dc:	0402221c 	xori	r16,zero,2184
 40217e0:	04022148 	cmpgei	r16,zero,2181
 40217e4:	d9402a17 	ldw	r5,168(sp)
 40217e8:	8163c83a 	sub	r17,r16,r5
 40217ec:	003f7d06 	br	40215e4 <__flash_rwdata_start+0xffff0d20>
 40217f0:	b809883a 	mov	r4,r23
 40217f4:	b00b883a 	mov	r5,r22
 40217f8:	40235fc0 	call	40235fc <__swsetup_r>
 40217fc:	10000c1e 	bne	r2,zero,4021830 <___vfprintf_internal_r+0x36c>
 4021800:	b080030b 	ldhu	r2,12(r22)
 4021804:	00c00284 	movi	r3,10
 4021808:	1080068c 	andi	r2,r2,26
 402180c:	10ff551e 	bne	r2,r3,4021564 <__flash_rwdata_start+0xffff0ca0>
 4021810:	b080038f 	ldh	r2,14(r22)
 4021814:	103f5316 	blt	r2,zero,4021564 <__flash_rwdata_start+0xffff0ca0>
 4021818:	d9802a17 	ldw	r6,168(sp)
 402181c:	d9c02d17 	ldw	r7,180(sp)
 4021820:	b809883a 	mov	r4,r23
 4021824:	b00b883a 	mov	r5,r22
 4021828:	40235400 	call	4023540 <__sbprintf>
 402182c:	00000106 	br	4021834 <___vfprintf_internal_r+0x370>
 4021830:	00bfffc4 	movi	r2,-1
 4021834:	dfc04917 	ldw	ra,292(sp)
 4021838:	df004817 	ldw	fp,288(sp)
 402183c:	ddc04717 	ldw	r23,284(sp)
 4021840:	dd804617 	ldw	r22,280(sp)
 4021844:	dd404517 	ldw	r21,276(sp)
 4021848:	dd004417 	ldw	r20,272(sp)
 402184c:	dcc04317 	ldw	r19,268(sp)
 4021850:	dc804217 	ldw	r18,264(sp)
 4021854:	dc404117 	ldw	r17,260(sp)
 4021858:	dc004017 	ldw	r16,256(sp)
 402185c:	dec04a04 	addi	sp,sp,296
 4021860:	f800283a 	ret
 4021864:	b809883a 	mov	r4,r23
 4021868:	b00b883a 	mov	r5,r22
 402186c:	d9801e04 	addi	r6,sp,120
 4021870:	40289c80 	call	40289c8 <__sprint_r>
 4021874:	1000081e 	bne	r2,zero,4021898 <___vfprintf_internal_r+0x3d4>
 4021878:	da000404 	addi	r8,sp,16
 402187c:	003f6606 	br	4021618 <__flash_rwdata_start+0xffff0d54>
 4021880:	d8802017 	ldw	r2,128(sp)
 4021884:	10000426 	beq	r2,zero,4021898 <___vfprintf_internal_r+0x3d4>
 4021888:	b809883a 	mov	r4,r23
 402188c:	b00b883a 	mov	r5,r22
 4021890:	d9801e04 	addi	r6,sp,120
 4021894:	40289c80 	call	40289c8 <__sprint_r>
 4021898:	b080030b 	ldhu	r2,12(r22)
 402189c:	1080100c 	andi	r2,r2,64
 40218a0:	103fe31e 	bne	r2,zero,4021830 <__flash_rwdata_start+0xffff0f6c>
 40218a4:	d8802f17 	ldw	r2,188(sp)
 40218a8:	003fe206 	br	4021834 <__flash_rwdata_start+0xffff0f70>
 40218ac:	b809883a 	mov	r4,r23
 40218b0:	40256940 	call	4025694 <__sinit>
 40218b4:	003f1b06 	br	4021524 <__flash_rwdata_start+0xffff0c60>
 40218b8:	e005883a 	mov	r2,fp
 40218bc:	9cc00114 	ori	r19,r19,4
 40218c0:	e4000007 	ldb	r16,0(fp)
 40218c4:	003f6506 	br	402165c <__flash_rwdata_start+0xffff0d98>
 40218c8:	e4000007 	ldb	r16,0(fp)
 40218cc:	01000a84 	movi	r4,42
 40218d0:	e0800044 	addi	r2,fp,1
 40218d4:	8106ff26 	beq	r16,r4,40234d4 <___vfprintf_internal_r+0x2010>
 40218d8:	857ff404 	addi	r21,r16,-48
 40218dc:	1039883a 	mov	fp,r2
 40218e0:	0013883a 	mov	r9,zero
 40218e4:	957f5e36 	bltu	r18,r21,4021660 <__flash_rwdata_start+0xffff0d9c>
 40218e8:	0009883a 	mov	r4,zero
 40218ec:	01400284 	movi	r5,10
 40218f0:	402110c0 	call	402110c <__mulsi3>
 40218f4:	e4000007 	ldb	r16,0(fp)
 40218f8:	a889883a 	add	r4,r21,r2
 40218fc:	e7000044 	addi	fp,fp,1
 4021900:	857ff404 	addi	r21,r16,-48
 4021904:	957ff92e 	bgeu	r18,r21,40218ec <__flash_rwdata_start+0xffff1028>
 4021908:	2013883a 	mov	r9,r4
 402190c:	203f540e 	bge	r4,zero,4021660 <__flash_rwdata_start+0xffff0d9c>
 4021910:	027fffc4 	movi	r9,-1
 4021914:	003f5206 	br	4021660 <__flash_rwdata_start+0xffff0d9c>
 4021918:	9cc02014 	ori	r19,r19,128
 402191c:	e005883a 	mov	r2,fp
 4021920:	e4000007 	ldb	r16,0(fp)
 4021924:	003f4d06 	br	402165c <__flash_rwdata_start+0xffff0d98>
 4021928:	857ff404 	addi	r21,r16,-48
 402192c:	d8002e15 	stw	zero,184(sp)
 4021930:	0009883a 	mov	r4,zero
 4021934:	da402c15 	stw	r9,176(sp)
 4021938:	e021883a 	mov	r16,fp
 402193c:	01400284 	movi	r5,10
 4021940:	402110c0 	call	402110c <__mulsi3>
 4021944:	81400007 	ldb	r5,0(r16)
 4021948:	1549883a 	add	r4,r2,r21
 402194c:	e7000044 	addi	fp,fp,1
 4021950:	2d7ff404 	addi	r21,r5,-48
 4021954:	e021883a 	mov	r16,fp
 4021958:	957ff82e 	bgeu	r18,r21,402193c <__flash_rwdata_start+0xffff1078>
 402195c:	2821883a 	mov	r16,r5
 4021960:	d9002e15 	stw	r4,184(sp)
 4021964:	da402c17 	ldw	r9,176(sp)
 4021968:	003f3d06 	br	4021660 <__flash_rwdata_start+0xffff0d9c>
 402196c:	da002a17 	ldw	r8,168(sp)
 4021970:	df002a15 	stw	fp,168(sp)
 4021974:	9839883a 	mov	fp,r19
 4021978:	dcc02b03 	ldbu	r19,172(sp)
 402197c:	e7000414 	ori	fp,fp,16
 4021980:	e080080c 	andi	r2,fp,32
 4021984:	dcc02785 	stb	r19,158(sp)
 4021988:	d8c02d17 	ldw	r3,180(sp)
 402198c:	10016526 	beq	r2,zero,4021f24 <___vfprintf_internal_r+0xa60>
 4021990:	d9002d17 	ldw	r4,180(sp)
 4021994:	18800117 	ldw	r2,4(r3)
 4021998:	1c800017 	ldw	r18,0(r3)
 402199c:	21000204 	addi	r4,r4,8
 40219a0:	d9002d15 	stw	r4,180(sp)
 40219a4:	102b883a 	mov	r21,r2
 40219a8:	10044516 	blt	r2,zero,4022ac0 <___vfprintf_internal_r+0x15fc>
 40219ac:	dcc02783 	ldbu	r19,158(sp)
 40219b0:	da403215 	stw	r9,200(sp)
 40219b4:	00800044 	movi	r2,1
 40219b8:	9546b03a 	or	r3,r18,r21
 40219bc:	48000216 	blt	r9,zero,40219c8 <___vfprintf_internal_r+0x504>
 40219c0:	013fdfc4 	movi	r4,-129
 40219c4:	e138703a 	and	fp,fp,r4
 40219c8:	1802211e 	bne	r3,zero,4022250 <___vfprintf_internal_r+0xd8c>
 40219cc:	48031326 	beq	r9,zero,402261c <___vfprintf_internal_r+0x1158>
 40219d0:	10803fcc 	andi	r2,r2,255
 40219d4:	00c00044 	movi	r3,1
 40219d8:	10c24126 	beq	r2,r3,40222e0 <___vfprintf_internal_r+0xe1c>
 40219dc:	00c00084 	movi	r3,2
 40219e0:	10c33426 	beq	r2,r3,40226b4 <___vfprintf_internal_r+0x11f0>
 40219e4:	d8c01e04 	addi	r3,sp,120
 40219e8:	9008d0fa 	srli	r4,r18,3
 40219ec:	a80a977a 	slli	r5,r21,29
 40219f0:	a82ad0fa 	srli	r21,r21,3
 40219f4:	948001cc 	andi	r18,r18,7
 40219f8:	90800c04 	addi	r2,r18,48
 40219fc:	18ffffc4 	addi	r3,r3,-1
 4021a00:	2924b03a 	or	r18,r5,r4
 4021a04:	18800005 	stb	r2,0(r3)
 4021a08:	9548b03a 	or	r4,r18,r21
 4021a0c:	203ff61e 	bne	r4,zero,40219e8 <__flash_rwdata_start+0xffff1124>
 4021a10:	e100004c 	andi	r4,fp,1
 4021a14:	d8c03115 	stw	r3,196(sp)
 4021a18:	2003961e 	bne	r4,zero,4022874 <___vfprintf_internal_r+0x13b0>
 4021a1c:	d8802817 	ldw	r2,160(sp)
 4021a20:	10e3c83a 	sub	r17,r2,r3
 4021a24:	8805883a 	mov	r2,r17
 4021a28:	8a40010e 	bge	r17,r9,4021a30 <___vfprintf_internal_r+0x56c>
 4021a2c:	4805883a 	mov	r2,r9
 4021a30:	d8802b15 	stw	r2,172(sp)
 4021a34:	d8003415 	stw	zero,208(sp)
 4021a38:	98803fcc 	andi	r2,r19,255
 4021a3c:	1080201c 	xori	r2,r2,128
 4021a40:	10bfe004 	addi	r2,r2,-128
 4021a44:	10000326 	beq	r2,zero,4021a54 <___vfprintf_internal_r+0x590>
 4021a48:	d8c02b17 	ldw	r3,172(sp)
 4021a4c:	18c00044 	addi	r3,r3,1
 4021a50:	d8c02b15 	stw	r3,172(sp)
 4021a54:	e0c0008c 	andi	r3,fp,2
 4021a58:	d8c02c15 	stw	r3,176(sp)
 4021a5c:	18000326 	beq	r3,zero,4021a6c <___vfprintf_internal_r+0x5a8>
 4021a60:	d8c02b17 	ldw	r3,172(sp)
 4021a64:	18c00084 	addi	r3,r3,2
 4021a68:	d8c02b15 	stw	r3,172(sp)
 4021a6c:	e0c0210c 	andi	r3,fp,132
 4021a70:	d8c03015 	stw	r3,192(sp)
 4021a74:	1801f41e 	bne	r3,zero,4022248 <___vfprintf_internal_r+0xd84>
 4021a78:	d9002e17 	ldw	r4,184(sp)
 4021a7c:	d8c02b17 	ldw	r3,172(sp)
 4021a80:	20ebc83a 	sub	r21,r4,r3
 4021a84:	0541f00e 	bge	zero,r21,4022248 <___vfprintf_internal_r+0xd84>
 4021a88:	02400404 	movi	r9,16
 4021a8c:	d8c02017 	ldw	r3,128(sp)
 4021a90:	d8801f17 	ldw	r2,124(sp)
 4021a94:	4d45710e 	bge	r9,r21,402305c <___vfprintf_internal_r+0x1b98>
 4021a98:	01400034 	movhi	r5,0
 4021a9c:	29402a84 	addi	r5,r5,170
 4021aa0:	d9403615 	stw	r5,216(sp)
 4021aa4:	4827883a 	mov	r19,r9
 4021aa8:	048001c4 	movi	r18,7
 4021aac:	00000306 	br	4021abc <___vfprintf_internal_r+0x5f8>
 4021ab0:	ad7ffc04 	addi	r21,r21,-16
 4021ab4:	42000204 	addi	r8,r8,8
 4021ab8:	9d40130e 	bge	r19,r21,4021b08 <___vfprintf_internal_r+0x644>
 4021abc:	01000034 	movhi	r4,0
 4021ac0:	18c00404 	addi	r3,r3,16
 4021ac4:	10800044 	addi	r2,r2,1
 4021ac8:	21002a84 	addi	r4,r4,170
 4021acc:	41000015 	stw	r4,0(r8)
 4021ad0:	44c00115 	stw	r19,4(r8)
 4021ad4:	d8c02015 	stw	r3,128(sp)
 4021ad8:	d8801f15 	stw	r2,124(sp)
 4021adc:	90bff40e 	bge	r18,r2,4021ab0 <__flash_rwdata_start+0xffff11ec>
 4021ae0:	b809883a 	mov	r4,r23
 4021ae4:	b00b883a 	mov	r5,r22
 4021ae8:	d9801e04 	addi	r6,sp,120
 4021aec:	40289c80 	call	40289c8 <__sprint_r>
 4021af0:	103f691e 	bne	r2,zero,4021898 <__flash_rwdata_start+0xffff0fd4>
 4021af4:	ad7ffc04 	addi	r21,r21,-16
 4021af8:	d8c02017 	ldw	r3,128(sp)
 4021afc:	d8801f17 	ldw	r2,124(sp)
 4021b00:	da000404 	addi	r8,sp,16
 4021b04:	9d7fed16 	blt	r19,r21,4021abc <__flash_rwdata_start+0xffff11f8>
 4021b08:	d9403617 	ldw	r5,216(sp)
 4021b0c:	a8c7883a 	add	r3,r21,r3
 4021b10:	10800044 	addi	r2,r2,1
 4021b14:	41400015 	stw	r5,0(r8)
 4021b18:	45400115 	stw	r21,4(r8)
 4021b1c:	d8c02015 	stw	r3,128(sp)
 4021b20:	d8801f15 	stw	r2,124(sp)
 4021b24:	010001c4 	movi	r4,7
 4021b28:	20832716 	blt	r4,r2,40227c8 <___vfprintf_internal_r+0x1304>
 4021b2c:	d8802787 	ldb	r2,158(sp)
 4021b30:	42000204 	addi	r8,r8,8
 4021b34:	10000c26 	beq	r2,zero,4021b68 <___vfprintf_internal_r+0x6a4>
 4021b38:	d8801f17 	ldw	r2,124(sp)
 4021b3c:	d9002784 	addi	r4,sp,158
 4021b40:	18c00044 	addi	r3,r3,1
 4021b44:	10800044 	addi	r2,r2,1
 4021b48:	41000015 	stw	r4,0(r8)
 4021b4c:	01000044 	movi	r4,1
 4021b50:	41000115 	stw	r4,4(r8)
 4021b54:	d8c02015 	stw	r3,128(sp)
 4021b58:	d8801f15 	stw	r2,124(sp)
 4021b5c:	010001c4 	movi	r4,7
 4021b60:	2082c016 	blt	r4,r2,4022664 <___vfprintf_internal_r+0x11a0>
 4021b64:	42000204 	addi	r8,r8,8
 4021b68:	d8802c17 	ldw	r2,176(sp)
 4021b6c:	10000c26 	beq	r2,zero,4021ba0 <___vfprintf_internal_r+0x6dc>
 4021b70:	d8801f17 	ldw	r2,124(sp)
 4021b74:	d9002704 	addi	r4,sp,156
 4021b78:	18c00084 	addi	r3,r3,2
 4021b7c:	10800044 	addi	r2,r2,1
 4021b80:	41000015 	stw	r4,0(r8)
 4021b84:	01000084 	movi	r4,2
 4021b88:	41000115 	stw	r4,4(r8)
 4021b8c:	d8c02015 	stw	r3,128(sp)
 4021b90:	d8801f15 	stw	r2,124(sp)
 4021b94:	010001c4 	movi	r4,7
 4021b98:	2082ba16 	blt	r4,r2,4022684 <___vfprintf_internal_r+0x11c0>
 4021b9c:	42000204 	addi	r8,r8,8
 4021ba0:	d9003017 	ldw	r4,192(sp)
 4021ba4:	00802004 	movi	r2,128
 4021ba8:	20821c26 	beq	r4,r2,402241c <___vfprintf_internal_r+0xf58>
 4021bac:	d9403217 	ldw	r5,200(sp)
 4021bb0:	2c67c83a 	sub	r19,r5,r17
 4021bb4:	04c0260e 	bge	zero,r19,4021c50 <___vfprintf_internal_r+0x78c>
 4021bb8:	05400404 	movi	r21,16
 4021bbc:	d8801f17 	ldw	r2,124(sp)
 4021bc0:	acc46e0e 	bge	r21,r19,4022d7c <___vfprintf_internal_r+0x18b8>
 4021bc4:	01400034 	movhi	r5,0
 4021bc8:	29402684 	addi	r5,r5,154
 4021bcc:	d9402c15 	stw	r5,176(sp)
 4021bd0:	048001c4 	movi	r18,7
 4021bd4:	00000306 	br	4021be4 <___vfprintf_internal_r+0x720>
 4021bd8:	9cfffc04 	addi	r19,r19,-16
 4021bdc:	42000204 	addi	r8,r8,8
 4021be0:	acc0110e 	bge	r21,r19,4021c28 <___vfprintf_internal_r+0x764>
 4021be4:	18c00404 	addi	r3,r3,16
 4021be8:	10800044 	addi	r2,r2,1
 4021bec:	45000015 	stw	r20,0(r8)
 4021bf0:	45400115 	stw	r21,4(r8)
 4021bf4:	d8c02015 	stw	r3,128(sp)
 4021bf8:	d8801f15 	stw	r2,124(sp)
 4021bfc:	90bff60e 	bge	r18,r2,4021bd8 <__flash_rwdata_start+0xffff1314>
 4021c00:	b809883a 	mov	r4,r23
 4021c04:	b00b883a 	mov	r5,r22
 4021c08:	d9801e04 	addi	r6,sp,120
 4021c0c:	40289c80 	call	40289c8 <__sprint_r>
 4021c10:	103f211e 	bne	r2,zero,4021898 <__flash_rwdata_start+0xffff0fd4>
 4021c14:	9cfffc04 	addi	r19,r19,-16
 4021c18:	d8c02017 	ldw	r3,128(sp)
 4021c1c:	d8801f17 	ldw	r2,124(sp)
 4021c20:	da000404 	addi	r8,sp,16
 4021c24:	acffef16 	blt	r21,r19,4021be4 <__flash_rwdata_start+0xffff1320>
 4021c28:	d9002c17 	ldw	r4,176(sp)
 4021c2c:	1cc7883a 	add	r3,r3,r19
 4021c30:	10800044 	addi	r2,r2,1
 4021c34:	41000015 	stw	r4,0(r8)
 4021c38:	44c00115 	stw	r19,4(r8)
 4021c3c:	d8c02015 	stw	r3,128(sp)
 4021c40:	d8801f15 	stw	r2,124(sp)
 4021c44:	010001c4 	movi	r4,7
 4021c48:	20827e16 	blt	r4,r2,4022644 <___vfprintf_internal_r+0x1180>
 4021c4c:	42000204 	addi	r8,r8,8
 4021c50:	e080400c 	andi	r2,fp,256
 4021c54:	1001a81e 	bne	r2,zero,40222f8 <___vfprintf_internal_r+0xe34>
 4021c58:	d8801f17 	ldw	r2,124(sp)
 4021c5c:	d9403117 	ldw	r5,196(sp)
 4021c60:	1c47883a 	add	r3,r3,r17
 4021c64:	10800044 	addi	r2,r2,1
 4021c68:	41400015 	stw	r5,0(r8)
 4021c6c:	44400115 	stw	r17,4(r8)
 4021c70:	d8c02015 	stw	r3,128(sp)
 4021c74:	d8801f15 	stw	r2,124(sp)
 4021c78:	010001c4 	movi	r4,7
 4021c7c:	20825916 	blt	r4,r2,40225e4 <___vfprintf_internal_r+0x1120>
 4021c80:	42000204 	addi	r8,r8,8
 4021c84:	e080010c 	andi	r2,fp,4
 4021c88:	10003126 	beq	r2,zero,4021d50 <___vfprintf_internal_r+0x88c>
 4021c8c:	d8802e17 	ldw	r2,184(sp)
 4021c90:	d9002b17 	ldw	r4,172(sp)
 4021c94:	1121c83a 	sub	r16,r2,r4
 4021c98:	04002d0e 	bge	zero,r16,4021d50 <___vfprintf_internal_r+0x88c>
 4021c9c:	04400404 	movi	r17,16
 4021ca0:	d8801f17 	ldw	r2,124(sp)
 4021ca4:	8c053f0e 	bge	r17,r16,40231a4 <___vfprintf_internal_r+0x1ce0>
 4021ca8:	01000034 	movhi	r4,0
 4021cac:	21002a84 	addi	r4,r4,170
 4021cb0:	d9003615 	stw	r4,216(sp)
 4021cb4:	048001c4 	movi	r18,7
 4021cb8:	00000306 	br	4021cc8 <___vfprintf_internal_r+0x804>
 4021cbc:	843ffc04 	addi	r16,r16,-16
 4021cc0:	42000204 	addi	r8,r8,8
 4021cc4:	8c00130e 	bge	r17,r16,4021d14 <___vfprintf_internal_r+0x850>
 4021cc8:	01400034 	movhi	r5,0
 4021ccc:	18c00404 	addi	r3,r3,16
 4021cd0:	10800044 	addi	r2,r2,1
 4021cd4:	29402a84 	addi	r5,r5,170
 4021cd8:	41400015 	stw	r5,0(r8)
 4021cdc:	44400115 	stw	r17,4(r8)
 4021ce0:	d8c02015 	stw	r3,128(sp)
 4021ce4:	d8801f15 	stw	r2,124(sp)
 4021ce8:	90bff40e 	bge	r18,r2,4021cbc <__flash_rwdata_start+0xffff13f8>
 4021cec:	b809883a 	mov	r4,r23
 4021cf0:	b00b883a 	mov	r5,r22
 4021cf4:	d9801e04 	addi	r6,sp,120
 4021cf8:	40289c80 	call	40289c8 <__sprint_r>
 4021cfc:	103ee61e 	bne	r2,zero,4021898 <__flash_rwdata_start+0xffff0fd4>
 4021d00:	843ffc04 	addi	r16,r16,-16
 4021d04:	d8c02017 	ldw	r3,128(sp)
 4021d08:	d8801f17 	ldw	r2,124(sp)
 4021d0c:	da000404 	addi	r8,sp,16
 4021d10:	8c3fed16 	blt	r17,r16,4021cc8 <__flash_rwdata_start+0xffff1404>
 4021d14:	d9003617 	ldw	r4,216(sp)
 4021d18:	1c07883a 	add	r3,r3,r16
 4021d1c:	10800044 	addi	r2,r2,1
 4021d20:	41000015 	stw	r4,0(r8)
 4021d24:	44000115 	stw	r16,4(r8)
 4021d28:	d8c02015 	stw	r3,128(sp)
 4021d2c:	d8801f15 	stw	r2,124(sp)
 4021d30:	010001c4 	movi	r4,7
 4021d34:	2080060e 	bge	r4,r2,4021d50 <___vfprintf_internal_r+0x88c>
 4021d38:	b809883a 	mov	r4,r23
 4021d3c:	b00b883a 	mov	r5,r22
 4021d40:	d9801e04 	addi	r6,sp,120
 4021d44:	40289c80 	call	40289c8 <__sprint_r>
 4021d48:	103ed31e 	bne	r2,zero,4021898 <__flash_rwdata_start+0xffff0fd4>
 4021d4c:	d8c02017 	ldw	r3,128(sp)
 4021d50:	df002b17 	ldw	fp,172(sp)
 4021d54:	d9402e17 	ldw	r5,184(sp)
 4021d58:	e140010e 	bge	fp,r5,4021d60 <___vfprintf_internal_r+0x89c>
 4021d5c:	2839883a 	mov	fp,r5
 4021d60:	d8802f17 	ldw	r2,188(sp)
 4021d64:	1705883a 	add	r2,r2,fp
 4021d68:	d8802f15 	stw	r2,188(sp)
 4021d6c:	1802251e 	bne	r3,zero,4022604 <___vfprintf_internal_r+0x1140>
 4021d70:	d8c02a17 	ldw	r3,168(sp)
 4021d74:	d8001f15 	stw	zero,124(sp)
 4021d78:	da000404 	addi	r8,sp,16
 4021d7c:	18800007 	ldb	r2,0(r3)
 4021d80:	103e0e1e 	bne	r2,zero,40215bc <__flash_rwdata_start+0xffff0cf8>
 4021d84:	dc002a17 	ldw	r16,168(sp)
 4021d88:	003e2606 	br	4021624 <__flash_rwdata_start+0xffff0d60>
 4021d8c:	d9002d17 	ldw	r4,180(sp)
 4021d90:	d9402d17 	ldw	r5,180(sp)
 4021d94:	da002a17 	ldw	r8,168(sp)
 4021d98:	21000017 	ldw	r4,0(r4)
 4021d9c:	29400117 	ldw	r5,4(r5)
 4021da0:	df002a15 	stw	fp,168(sp)
 4021da4:	9839883a 	mov	fp,r19
 4021da8:	dcc02b03 	ldbu	r19,172(sp)
 4021dac:	d9003715 	stw	r4,220(sp)
 4021db0:	d9403915 	stw	r5,228(sp)
 4021db4:	da003f15 	stw	r8,252(sp)
 4021db8:	da403e15 	stw	r9,248(sp)
 4021dbc:	dcc02785 	stb	r19,158(sp)
 4021dc0:	40286240 	call	4028624 <__fpclassifyd>
 4021dc4:	d8c02d17 	ldw	r3,180(sp)
 4021dc8:	04400044 	movi	r17,1
 4021dcc:	da003f17 	ldw	r8,252(sp)
 4021dd0:	1c800204 	addi	r18,r3,8
 4021dd4:	da403e17 	ldw	r9,248(sp)
 4021dd8:	d9003717 	ldw	r4,220(sp)
 4021ddc:	d9403917 	ldw	r5,228(sp)
 4021de0:	1443411e 	bne	r2,r17,4022ae8 <___vfprintf_internal_r+0x1624>
 4021de4:	000d883a 	mov	r6,zero
 4021de8:	000f883a 	mov	r7,zero
 4021dec:	402c7a40 	call	402c7a4 <__ledf2>
 4021df0:	da003f17 	ldw	r8,252(sp)
 4021df4:	10050d16 	blt	r2,zero,402322c <___vfprintf_internal_r+0x1d68>
 4021df8:	dcc02783 	ldbu	r19,158(sp)
 4021dfc:	008011c4 	movi	r2,71
 4021e00:	1404590e 	bge	r2,r16,4022f68 <___vfprintf_internal_r+0x1aa4>
 4021e04:	01400034 	movhi	r5,0
 4021e08:	29401704 	addi	r5,r5,92
 4021e0c:	d9403115 	stw	r5,196(sp)
 4021e10:	00c000c4 	movi	r3,3
 4021e14:	00bfdfc4 	movi	r2,-129
 4021e18:	d8c02b15 	stw	r3,172(sp)
 4021e1c:	e0b8703a 	and	fp,fp,r2
 4021e20:	dc802d15 	stw	r18,180(sp)
 4021e24:	1823883a 	mov	r17,r3
 4021e28:	d8003215 	stw	zero,200(sp)
 4021e2c:	d8003415 	stw	zero,208(sp)
 4021e30:	003f0106 	br	4021a38 <__flash_rwdata_start+0xffff1174>
 4021e34:	9cc00214 	ori	r19,r19,8
 4021e38:	e005883a 	mov	r2,fp
 4021e3c:	e4000007 	ldb	r16,0(fp)
 4021e40:	003e0606 	br	402165c <__flash_rwdata_start+0xffff0d98>
 4021e44:	da002a17 	ldw	r8,168(sp)
 4021e48:	df002a15 	stw	fp,168(sp)
 4021e4c:	9f000414 	ori	fp,r19,16
 4021e50:	e080080c 	andi	r2,fp,32
 4021e54:	1000e726 	beq	r2,zero,40221f4 <___vfprintf_internal_r+0xd30>
 4021e58:	d9402d17 	ldw	r5,180(sp)
 4021e5c:	0005883a 	mov	r2,zero
 4021e60:	2c800017 	ldw	r18,0(r5)
 4021e64:	2d400117 	ldw	r21,4(r5)
 4021e68:	29400204 	addi	r5,r5,8
 4021e6c:	d9402d15 	stw	r5,180(sp)
 4021e70:	9546b03a 	or	r3,r18,r21
 4021e74:	d8002785 	stb	zero,158(sp)
 4021e78:	da403215 	stw	r9,200(sp)
 4021e7c:	0027883a 	mov	r19,zero
 4021e80:	003ece06 	br	40219bc <__flash_rwdata_start+0xffff10f8>
 4021e84:	da002a17 	ldw	r8,168(sp)
 4021e88:	df002a15 	stw	fp,168(sp)
 4021e8c:	9f000414 	ori	fp,r19,16
 4021e90:	e080080c 	andi	r2,fp,32
 4021e94:	1000c826 	beq	r2,zero,40221b8 <___vfprintf_internal_r+0xcf4>
 4021e98:	d9002d17 	ldw	r4,180(sp)
 4021e9c:	00800044 	movi	r2,1
 4021ea0:	24800017 	ldw	r18,0(r4)
 4021ea4:	25400117 	ldw	r21,4(r4)
 4021ea8:	21000204 	addi	r4,r4,8
 4021eac:	d9002d15 	stw	r4,180(sp)
 4021eb0:	9546b03a 	or	r3,r18,r21
 4021eb4:	003fef06 	br	4021e74 <__flash_rwdata_start+0xffff15b0>
 4021eb8:	d9402d17 	ldw	r5,180(sp)
 4021ebc:	00800c04 	movi	r2,48
 4021ec0:	d8802705 	stb	r2,156(sp)
 4021ec4:	2c800017 	ldw	r18,0(r5)
 4021ec8:	00801e04 	movi	r2,120
 4021ecc:	d8802745 	stb	r2,157(sp)
 4021ed0:	00800034 	movhi	r2,0
 4021ed4:	10801f04 	addi	r2,r2,124
 4021ed8:	29400104 	addi	r5,r5,4
 4021edc:	da002a17 	ldw	r8,168(sp)
 4021ee0:	d8803b15 	stw	r2,236(sp)
 4021ee4:	df002a15 	stw	fp,168(sp)
 4021ee8:	002b883a 	mov	r21,zero
 4021eec:	9f000094 	ori	fp,r19,2
 4021ef0:	d9402d15 	stw	r5,180(sp)
 4021ef4:	00800084 	movi	r2,2
 4021ef8:	04001e04 	movi	r16,120
 4021efc:	9007883a 	mov	r3,r18
 4021f00:	003fdc06 	br	4021e74 <__flash_rwdata_start+0xffff15b0>
 4021f04:	da002a17 	ldw	r8,168(sp)
 4021f08:	df002a15 	stw	fp,168(sp)
 4021f0c:	9839883a 	mov	fp,r19
 4021f10:	dcc02b03 	ldbu	r19,172(sp)
 4021f14:	e080080c 	andi	r2,fp,32
 4021f18:	d8c02d17 	ldw	r3,180(sp)
 4021f1c:	dcc02785 	stb	r19,158(sp)
 4021f20:	103e9b1e 	bne	r2,zero,4021990 <__flash_rwdata_start+0xffff10cc>
 4021f24:	e080040c 	andi	r2,fp,16
 4021f28:	10036626 	beq	r2,zero,4022cc4 <___vfprintf_internal_r+0x1800>
 4021f2c:	1c800017 	ldw	r18,0(r3)
 4021f30:	d9402d17 	ldw	r5,180(sp)
 4021f34:	902bd7fa 	srai	r21,r18,31
 4021f38:	29400104 	addi	r5,r5,4
 4021f3c:	d9402d15 	stw	r5,180(sp)
 4021f40:	a805883a 	mov	r2,r21
 4021f44:	003e9806 	br	40219a8 <__flash_rwdata_start+0xffff10e4>
 4021f48:	9cc01014 	ori	r19,r19,64
 4021f4c:	e005883a 	mov	r2,fp
 4021f50:	e4000007 	ldb	r16,0(fp)
 4021f54:	003dc106 	br	402165c <__flash_rwdata_start+0xffff0d98>
 4021f58:	e4000007 	ldb	r16,0(fp)
 4021f5c:	00801b04 	movi	r2,108
 4021f60:	80841426 	beq	r16,r2,4022fb4 <___vfprintf_internal_r+0x1af0>
 4021f64:	9cc00414 	ori	r19,r19,16
 4021f68:	e005883a 	mov	r2,fp
 4021f6c:	003dbb06 	br	402165c <__flash_rwdata_start+0xffff0d98>
 4021f70:	da002a17 	ldw	r8,168(sp)
 4021f74:	df002a15 	stw	fp,168(sp)
 4021f78:	9839883a 	mov	fp,r19
 4021f7c:	dcc02b03 	ldbu	r19,172(sp)
 4021f80:	e080080c 	andi	r2,fp,32
 4021f84:	dcc02785 	stb	r19,158(sp)
 4021f88:	10036126 	beq	r2,zero,4022d10 <___vfprintf_internal_r+0x184c>
 4021f8c:	d9402d17 	ldw	r5,180(sp)
 4021f90:	d9002f17 	ldw	r4,188(sp)
 4021f94:	28800017 	ldw	r2,0(r5)
 4021f98:	2007d7fa 	srai	r3,r4,31
 4021f9c:	29400104 	addi	r5,r5,4
 4021fa0:	d9402d15 	stw	r5,180(sp)
 4021fa4:	11000015 	stw	r4,0(r2)
 4021fa8:	10c00115 	stw	r3,4(r2)
 4021fac:	003d8006 	br	40215b0 <__flash_rwdata_start+0xffff0cec>
 4021fb0:	da002a17 	ldw	r8,168(sp)
 4021fb4:	df002a15 	stw	fp,168(sp)
 4021fb8:	9839883a 	mov	fp,r19
 4021fbc:	dcc02b03 	ldbu	r19,172(sp)
 4021fc0:	01400034 	movhi	r5,0
 4021fc4:	29401a04 	addi	r5,r5,104
 4021fc8:	dcc02785 	stb	r19,158(sp)
 4021fcc:	d9403b15 	stw	r5,236(sp)
 4021fd0:	e0c0080c 	andi	r3,fp,32
 4021fd4:	d8802d17 	ldw	r2,180(sp)
 4021fd8:	18006626 	beq	r3,zero,4022174 <___vfprintf_internal_r+0xcb0>
 4021fdc:	d9402d17 	ldw	r5,180(sp)
 4021fe0:	14800017 	ldw	r18,0(r2)
 4021fe4:	15400117 	ldw	r21,4(r2)
 4021fe8:	29400204 	addi	r5,r5,8
 4021fec:	d9402d15 	stw	r5,180(sp)
 4021ff0:	e080004c 	andi	r2,fp,1
 4021ff4:	1001fd26 	beq	r2,zero,40227ec <___vfprintf_internal_r+0x1328>
 4021ff8:	9546b03a 	or	r3,r18,r21
 4021ffc:	18034f26 	beq	r3,zero,4022d3c <___vfprintf_internal_r+0x1878>
 4022000:	00800c04 	movi	r2,48
 4022004:	d8802705 	stb	r2,156(sp)
 4022008:	dc002745 	stb	r16,157(sp)
 402200c:	e7000094 	ori	fp,fp,2
 4022010:	00800084 	movi	r2,2
 4022014:	003f9706 	br	4021e74 <__flash_rwdata_start+0xffff15b0>
 4022018:	d8c02d17 	ldw	r3,180(sp)
 402201c:	d9002d17 	ldw	r4,180(sp)
 4022020:	da002a17 	ldw	r8,168(sp)
 4022024:	18800017 	ldw	r2,0(r3)
 4022028:	21000104 	addi	r4,r4,4
 402202c:	00c00044 	movi	r3,1
 4022030:	df002a15 	stw	fp,168(sp)
 4022034:	d8c02b15 	stw	r3,172(sp)
 4022038:	9839883a 	mov	fp,r19
 402203c:	d8002785 	stb	zero,158(sp)
 4022040:	d8801405 	stb	r2,80(sp)
 4022044:	d9002d15 	stw	r4,180(sp)
 4022048:	1823883a 	mov	r17,r3
 402204c:	d8c01404 	addi	r3,sp,80
 4022050:	d8003215 	stw	zero,200(sp)
 4022054:	d8003415 	stw	zero,208(sp)
 4022058:	d8c03115 	stw	r3,196(sp)
 402205c:	0005883a 	mov	r2,zero
 4022060:	003e7c06 	br	4021a54 <__flash_rwdata_start+0xffff1190>
 4022064:	d8802b07 	ldb	r2,172(sp)
 4022068:	1003011e 	bne	r2,zero,4022c70 <___vfprintf_internal_r+0x17ac>
 402206c:	00c00804 	movi	r3,32
 4022070:	d8c02b05 	stb	r3,172(sp)
 4022074:	e005883a 	mov	r2,fp
 4022078:	e4000007 	ldb	r16,0(fp)
 402207c:	003d7706 	br	402165c <__flash_rwdata_start+0xffff0d98>
 4022080:	9cc00054 	ori	r19,r19,1
 4022084:	e005883a 	mov	r2,fp
 4022088:	e4000007 	ldb	r16,0(fp)
 402208c:	003d7306 	br	402165c <__flash_rwdata_start+0xffff0d98>
 4022090:	d9002d17 	ldw	r4,180(sp)
 4022094:	d9402d17 	ldw	r5,180(sp)
 4022098:	21000017 	ldw	r4,0(r4)
 402209c:	28c00104 	addi	r3,r5,4
 40220a0:	d9002e15 	stw	r4,184(sp)
 40220a4:	2003bd16 	blt	r4,zero,4022f9c <___vfprintf_internal_r+0x1ad8>
 40220a8:	d8c02d15 	stw	r3,180(sp)
 40220ac:	e005883a 	mov	r2,fp
 40220b0:	e4000007 	ldb	r16,0(fp)
 40220b4:	003d6906 	br	402165c <__flash_rwdata_start+0xffff0d98>
 40220b8:	00c00ac4 	movi	r3,43
 40220bc:	d8c02b05 	stb	r3,172(sp)
 40220c0:	e005883a 	mov	r2,fp
 40220c4:	e4000007 	ldb	r16,0(fp)
 40220c8:	003d6406 	br	402165c <__flash_rwdata_start+0xffff0d98>
 40220cc:	d8c02d17 	ldw	r3,180(sp)
 40220d0:	d9002d17 	ldw	r4,180(sp)
 40220d4:	da002a17 	ldw	r8,168(sp)
 40220d8:	18c00017 	ldw	r3,0(r3)
 40220dc:	df002a15 	stw	fp,168(sp)
 40220e0:	d8002785 	stb	zero,158(sp)
 40220e4:	d8c03115 	stw	r3,196(sp)
 40220e8:	9839883a 	mov	fp,r19
 40220ec:	24800104 	addi	r18,r4,4
 40220f0:	18041b26 	beq	r3,zero,4023160 <___vfprintf_internal_r+0x1c9c>
 40220f4:	d9003117 	ldw	r4,196(sp)
 40220f8:	4803be16 	blt	r9,zero,4022ff4 <___vfprintf_internal_r+0x1b30>
 40220fc:	480d883a 	mov	r6,r9
 4022100:	000b883a 	mov	r5,zero
 4022104:	da003f15 	stw	r8,252(sp)
 4022108:	da403e15 	stw	r9,248(sp)
 402210c:	4026b8c0 	call	4026b8c <memchr>
 4022110:	da003f17 	ldw	r8,252(sp)
 4022114:	da403e17 	ldw	r9,248(sp)
 4022118:	10045426 	beq	r2,zero,402326c <___vfprintf_internal_r+0x1da8>
 402211c:	d8c03117 	ldw	r3,196(sp)
 4022120:	10e3c83a 	sub	r17,r2,r3
 4022124:	4c436a16 	blt	r9,r17,4022ed0 <___vfprintf_internal_r+0x1a0c>
 4022128:	8805883a 	mov	r2,r17
 402212c:	8803b616 	blt	r17,zero,4023008 <___vfprintf_internal_r+0x1b44>
 4022130:	dcc02783 	ldbu	r19,158(sp)
 4022134:	d8802b15 	stw	r2,172(sp)
 4022138:	dc802d15 	stw	r18,180(sp)
 402213c:	d8003215 	stw	zero,200(sp)
 4022140:	d8003415 	stw	zero,208(sp)
 4022144:	003e3c06 	br	4021a38 <__flash_rwdata_start+0xffff1174>
 4022148:	da002a17 	ldw	r8,168(sp)
 402214c:	df002a15 	stw	fp,168(sp)
 4022150:	9839883a 	mov	fp,r19
 4022154:	dcc02b03 	ldbu	r19,172(sp)
 4022158:	01000034 	movhi	r4,0
 402215c:	21001f04 	addi	r4,r4,124
 4022160:	d9003b15 	stw	r4,236(sp)
 4022164:	dcc02785 	stb	r19,158(sp)
 4022168:	e0c0080c 	andi	r3,fp,32
 402216c:	d8802d17 	ldw	r2,180(sp)
 4022170:	183f9a1e 	bne	r3,zero,4021fdc <__flash_rwdata_start+0xffff1718>
 4022174:	e0c0040c 	andi	r3,fp,16
 4022178:	1802c026 	beq	r3,zero,4022c7c <___vfprintf_internal_r+0x17b8>
 402217c:	d8c02d17 	ldw	r3,180(sp)
 4022180:	14800017 	ldw	r18,0(r2)
 4022184:	002b883a 	mov	r21,zero
 4022188:	18c00104 	addi	r3,r3,4
 402218c:	d8c02d15 	stw	r3,180(sp)
 4022190:	003f9706 	br	4021ff0 <__flash_rwdata_start+0xffff172c>
 4022194:	9cc00814 	ori	r19,r19,32
 4022198:	e005883a 	mov	r2,fp
 402219c:	e4000007 	ldb	r16,0(fp)
 40221a0:	003d2e06 	br	402165c <__flash_rwdata_start+0xffff0d98>
 40221a4:	da002a17 	ldw	r8,168(sp)
 40221a8:	df002a15 	stw	fp,168(sp)
 40221ac:	9839883a 	mov	fp,r19
 40221b0:	e080080c 	andi	r2,fp,32
 40221b4:	103f381e 	bne	r2,zero,4021e98 <__flash_rwdata_start+0xffff15d4>
 40221b8:	e080040c 	andi	r2,fp,16
 40221bc:	1002b726 	beq	r2,zero,4022c9c <___vfprintf_internal_r+0x17d8>
 40221c0:	d9402d17 	ldw	r5,180(sp)
 40221c4:	002b883a 	mov	r21,zero
 40221c8:	00800044 	movi	r2,1
 40221cc:	2c800017 	ldw	r18,0(r5)
 40221d0:	29400104 	addi	r5,r5,4
 40221d4:	d9402d15 	stw	r5,180(sp)
 40221d8:	9007883a 	mov	r3,r18
 40221dc:	003f2506 	br	4021e74 <__flash_rwdata_start+0xffff15b0>
 40221e0:	da002a17 	ldw	r8,168(sp)
 40221e4:	df002a15 	stw	fp,168(sp)
 40221e8:	9839883a 	mov	fp,r19
 40221ec:	e080080c 	andi	r2,fp,32
 40221f0:	103f191e 	bne	r2,zero,4021e58 <__flash_rwdata_start+0xffff1594>
 40221f4:	e080040c 	andi	r2,fp,16
 40221f8:	1002bb26 	beq	r2,zero,4022ce8 <___vfprintf_internal_r+0x1824>
 40221fc:	d8802d17 	ldw	r2,180(sp)
 4022200:	002b883a 	mov	r21,zero
 4022204:	14800017 	ldw	r18,0(r2)
 4022208:	10800104 	addi	r2,r2,4
 402220c:	d8802d15 	stw	r2,180(sp)
 4022210:	9007883a 	mov	r3,r18
 4022214:	0005883a 	mov	r2,zero
 4022218:	003f1606 	br	4021e74 <__flash_rwdata_start+0xffff15b0>
 402221c:	da002a17 	ldw	r8,168(sp)
 4022220:	df002a15 	stw	fp,168(sp)
 4022224:	9839883a 	mov	fp,r19
 4022228:	dcc02b03 	ldbu	r19,172(sp)
 402222c:	dcc02785 	stb	r19,158(sp)
 4022230:	803d9326 	beq	r16,zero,4021880 <__flash_rwdata_start+0xffff0fbc>
 4022234:	00c00044 	movi	r3,1
 4022238:	d8c02b15 	stw	r3,172(sp)
 402223c:	dc001405 	stb	r16,80(sp)
 4022240:	d8002785 	stb	zero,158(sp)
 4022244:	003f8006 	br	4022048 <__flash_rwdata_start+0xffff1784>
 4022248:	d8c02017 	ldw	r3,128(sp)
 402224c:	003e3906 	br	4021b34 <__flash_rwdata_start+0xffff1270>
 4022250:	10803fcc 	andi	r2,r2,255
 4022254:	00c00044 	movi	r3,1
 4022258:	10fde01e 	bne	r2,r3,40219dc <__flash_rwdata_start+0xffff1118>
 402225c:	a800021e 	bne	r21,zero,4022268 <___vfprintf_internal_r+0xda4>
 4022260:	00800244 	movi	r2,9
 4022264:	14801e2e 	bgeu	r2,r18,40222e0 <___vfprintf_internal_r+0xe1c>
 4022268:	dc002b15 	stw	r16,172(sp)
 402226c:	dc401e04 	addi	r17,sp,120
 4022270:	9021883a 	mov	r16,r18
 4022274:	da402c15 	stw	r9,176(sp)
 4022278:	a825883a 	mov	r18,r21
 402227c:	402b883a 	mov	r21,r8
 4022280:	8009883a 	mov	r4,r16
 4022284:	900b883a 	mov	r5,r18
 4022288:	01800284 	movi	r6,10
 402228c:	000f883a 	mov	r7,zero
 4022290:	402ae080 	call	402ae08 <__umoddi3>
 4022294:	10800c04 	addi	r2,r2,48
 4022298:	8c7fffc4 	addi	r17,r17,-1
 402229c:	8009883a 	mov	r4,r16
 40222a0:	900b883a 	mov	r5,r18
 40222a4:	01800284 	movi	r6,10
 40222a8:	000f883a 	mov	r7,zero
 40222ac:	88800005 	stb	r2,0(r17)
 40222b0:	402a7c80 	call	402a7c8 <__udivdi3>
 40222b4:	1021883a 	mov	r16,r2
 40222b8:	10c4b03a 	or	r2,r2,r3
 40222bc:	1825883a 	mov	r18,r3
 40222c0:	103fef1e 	bne	r2,zero,4022280 <__flash_rwdata_start+0xffff19bc>
 40222c4:	d9002817 	ldw	r4,160(sp)
 40222c8:	dc403115 	stw	r17,196(sp)
 40222cc:	dc002b17 	ldw	r16,172(sp)
 40222d0:	da402c17 	ldw	r9,176(sp)
 40222d4:	a811883a 	mov	r8,r21
 40222d8:	2463c83a 	sub	r17,r4,r17
 40222dc:	003dd106 	br	4021a24 <__flash_rwdata_start+0xffff1160>
 40222e0:	94800c04 	addi	r18,r18,48
 40222e4:	d8c01dc4 	addi	r3,sp,119
 40222e8:	dc801dc5 	stb	r18,119(sp)
 40222ec:	dc403c17 	ldw	r17,240(sp)
 40222f0:	d8c03115 	stw	r3,196(sp)
 40222f4:	003dcb06 	br	4021a24 <__flash_rwdata_start+0xffff1160>
 40222f8:	00801944 	movi	r2,101
 40222fc:	1400720e 	bge	r2,r16,40224c8 <___vfprintf_internal_r+0x1004>
 4022300:	d9003717 	ldw	r4,220(sp)
 4022304:	d9403917 	ldw	r5,228(sp)
 4022308:	000d883a 	mov	r6,zero
 402230c:	000f883a 	mov	r7,zero
 4022310:	d8c03d15 	stw	r3,244(sp)
 4022314:	da003f15 	stw	r8,252(sp)
 4022318:	402c6400 	call	402c640 <__eqdf2>
 402231c:	d8c03d17 	ldw	r3,244(sp)
 4022320:	da003f17 	ldw	r8,252(sp)
 4022324:	1000f41e 	bne	r2,zero,40226f8 <___vfprintf_internal_r+0x1234>
 4022328:	d8801f17 	ldw	r2,124(sp)
 402232c:	01000034 	movhi	r4,0
 4022330:	21002604 	addi	r4,r4,152
 4022334:	18c00044 	addi	r3,r3,1
 4022338:	10800044 	addi	r2,r2,1
 402233c:	41000015 	stw	r4,0(r8)
 4022340:	01000044 	movi	r4,1
 4022344:	41000115 	stw	r4,4(r8)
 4022348:	d8c02015 	stw	r3,128(sp)
 402234c:	d8801f15 	stw	r2,124(sp)
 4022350:	010001c4 	movi	r4,7
 4022354:	20828d16 	blt	r4,r2,4022d8c <___vfprintf_internal_r+0x18c8>
 4022358:	42000204 	addi	r8,r8,8
 402235c:	d8802617 	ldw	r2,152(sp)
 4022360:	d9403317 	ldw	r5,204(sp)
 4022364:	11400216 	blt	r2,r5,4022370 <___vfprintf_internal_r+0xeac>
 4022368:	e080004c 	andi	r2,fp,1
 402236c:	103e4526 	beq	r2,zero,4021c84 <__flash_rwdata_start+0xffff13c0>
 4022370:	d8803817 	ldw	r2,224(sp)
 4022374:	d9003517 	ldw	r4,212(sp)
 4022378:	d9403817 	ldw	r5,224(sp)
 402237c:	1887883a 	add	r3,r3,r2
 4022380:	d8801f17 	ldw	r2,124(sp)
 4022384:	41000015 	stw	r4,0(r8)
 4022388:	41400115 	stw	r5,4(r8)
 402238c:	10800044 	addi	r2,r2,1
 4022390:	d8c02015 	stw	r3,128(sp)
 4022394:	d8801f15 	stw	r2,124(sp)
 4022398:	010001c4 	movi	r4,7
 402239c:	20830916 	blt	r4,r2,4022fc4 <___vfprintf_internal_r+0x1b00>
 40223a0:	42000204 	addi	r8,r8,8
 40223a4:	d8803317 	ldw	r2,204(sp)
 40223a8:	143fffc4 	addi	r16,r2,-1
 40223ac:	043e350e 	bge	zero,r16,4021c84 <__flash_rwdata_start+0xffff13c0>
 40223b0:	04400404 	movi	r17,16
 40223b4:	d8801f17 	ldw	r2,124(sp)
 40223b8:	8c007e0e 	bge	r17,r16,40225b4 <___vfprintf_internal_r+0x10f0>
 40223bc:	01400034 	movhi	r5,0
 40223c0:	29402684 	addi	r5,r5,154
 40223c4:	d9402c15 	stw	r5,176(sp)
 40223c8:	04c001c4 	movi	r19,7
 40223cc:	00000306 	br	40223dc <___vfprintf_internal_r+0xf18>
 40223d0:	42000204 	addi	r8,r8,8
 40223d4:	843ffc04 	addi	r16,r16,-16
 40223d8:	8c00790e 	bge	r17,r16,40225c0 <___vfprintf_internal_r+0x10fc>
 40223dc:	18c00404 	addi	r3,r3,16
 40223e0:	10800044 	addi	r2,r2,1
 40223e4:	45000015 	stw	r20,0(r8)
 40223e8:	44400115 	stw	r17,4(r8)
 40223ec:	d8c02015 	stw	r3,128(sp)
 40223f0:	d8801f15 	stw	r2,124(sp)
 40223f4:	98bff60e 	bge	r19,r2,40223d0 <__flash_rwdata_start+0xffff1b0c>
 40223f8:	b809883a 	mov	r4,r23
 40223fc:	b00b883a 	mov	r5,r22
 4022400:	d9801e04 	addi	r6,sp,120
 4022404:	40289c80 	call	40289c8 <__sprint_r>
 4022408:	103d231e 	bne	r2,zero,4021898 <__flash_rwdata_start+0xffff0fd4>
 402240c:	d8c02017 	ldw	r3,128(sp)
 4022410:	d8801f17 	ldw	r2,124(sp)
 4022414:	da000404 	addi	r8,sp,16
 4022418:	003fee06 	br	40223d4 <__flash_rwdata_start+0xffff1b10>
 402241c:	d9402e17 	ldw	r5,184(sp)
 4022420:	d8802b17 	ldw	r2,172(sp)
 4022424:	28a7c83a 	sub	r19,r5,r2
 4022428:	04fde00e 	bge	zero,r19,4021bac <__flash_rwdata_start+0xffff12e8>
 402242c:	05400404 	movi	r21,16
 4022430:	d8801f17 	ldw	r2,124(sp)
 4022434:	acc3870e 	bge	r21,r19,4023254 <___vfprintf_internal_r+0x1d90>
 4022438:	01400034 	movhi	r5,0
 402243c:	29402684 	addi	r5,r5,154
 4022440:	d9402c15 	stw	r5,176(sp)
 4022444:	048001c4 	movi	r18,7
 4022448:	00000306 	br	4022458 <___vfprintf_internal_r+0xf94>
 402244c:	9cfffc04 	addi	r19,r19,-16
 4022450:	42000204 	addi	r8,r8,8
 4022454:	acc0110e 	bge	r21,r19,402249c <___vfprintf_internal_r+0xfd8>
 4022458:	18c00404 	addi	r3,r3,16
 402245c:	10800044 	addi	r2,r2,1
 4022460:	45000015 	stw	r20,0(r8)
 4022464:	45400115 	stw	r21,4(r8)
 4022468:	d8c02015 	stw	r3,128(sp)
 402246c:	d8801f15 	stw	r2,124(sp)
 4022470:	90bff60e 	bge	r18,r2,402244c <__flash_rwdata_start+0xffff1b88>
 4022474:	b809883a 	mov	r4,r23
 4022478:	b00b883a 	mov	r5,r22
 402247c:	d9801e04 	addi	r6,sp,120
 4022480:	40289c80 	call	40289c8 <__sprint_r>
 4022484:	103d041e 	bne	r2,zero,4021898 <__flash_rwdata_start+0xffff0fd4>
 4022488:	9cfffc04 	addi	r19,r19,-16
 402248c:	d8c02017 	ldw	r3,128(sp)
 4022490:	d8801f17 	ldw	r2,124(sp)
 4022494:	da000404 	addi	r8,sp,16
 4022498:	acffef16 	blt	r21,r19,4022458 <__flash_rwdata_start+0xffff1b94>
 402249c:	d9002c17 	ldw	r4,176(sp)
 40224a0:	1cc7883a 	add	r3,r3,r19
 40224a4:	10800044 	addi	r2,r2,1
 40224a8:	41000015 	stw	r4,0(r8)
 40224ac:	44c00115 	stw	r19,4(r8)
 40224b0:	d8c02015 	stw	r3,128(sp)
 40224b4:	d8801f15 	stw	r2,124(sp)
 40224b8:	010001c4 	movi	r4,7
 40224bc:	20817816 	blt	r4,r2,4022aa0 <___vfprintf_internal_r+0x15dc>
 40224c0:	42000204 	addi	r8,r8,8
 40224c4:	003db906 	br	4021bac <__flash_rwdata_start+0xffff12e8>
 40224c8:	d9403317 	ldw	r5,204(sp)
 40224cc:	00800044 	movi	r2,1
 40224d0:	18c00044 	addi	r3,r3,1
 40224d4:	11413e0e 	bge	r2,r5,40229d0 <___vfprintf_internal_r+0x150c>
 40224d8:	dc001f17 	ldw	r16,124(sp)
 40224dc:	d8803117 	ldw	r2,196(sp)
 40224e0:	d8c02015 	stw	r3,128(sp)
 40224e4:	84000044 	addi	r16,r16,1
 40224e8:	40800015 	stw	r2,0(r8)
 40224ec:	00800044 	movi	r2,1
 40224f0:	40800115 	stw	r2,4(r8)
 40224f4:	dc001f15 	stw	r16,124(sp)
 40224f8:	008001c4 	movi	r2,7
 40224fc:	14015616 	blt	r2,r16,4022a58 <___vfprintf_internal_r+0x1594>
 4022500:	42000204 	addi	r8,r8,8
 4022504:	d9003817 	ldw	r4,224(sp)
 4022508:	d9403517 	ldw	r5,212(sp)
 402250c:	84000044 	addi	r16,r16,1
 4022510:	1907883a 	add	r3,r3,r4
 4022514:	41400015 	stw	r5,0(r8)
 4022518:	41000115 	stw	r4,4(r8)
 402251c:	d8c02015 	stw	r3,128(sp)
 4022520:	dc001f15 	stw	r16,124(sp)
 4022524:	008001c4 	movi	r2,7
 4022528:	14015416 	blt	r2,r16,4022a7c <___vfprintf_internal_r+0x15b8>
 402252c:	44400204 	addi	r17,r8,8
 4022530:	d9003717 	ldw	r4,220(sp)
 4022534:	d9403917 	ldw	r5,228(sp)
 4022538:	000d883a 	mov	r6,zero
 402253c:	000f883a 	mov	r7,zero
 4022540:	d8c03d15 	stw	r3,244(sp)
 4022544:	402c6400 	call	402c640 <__eqdf2>
 4022548:	d8c03d17 	ldw	r3,244(sp)
 402254c:	1000aa26 	beq	r2,zero,40227f8 <___vfprintf_internal_r+0x1334>
 4022550:	d9003317 	ldw	r4,204(sp)
 4022554:	d9403117 	ldw	r5,196(sp)
 4022558:	84000044 	addi	r16,r16,1
 402255c:	20bfffc4 	addi	r2,r4,-1
 4022560:	1887883a 	add	r3,r3,r2
 4022564:	29000044 	addi	r4,r5,1
 4022568:	88800115 	stw	r2,4(r17)
 402256c:	89000015 	stw	r4,0(r17)
 4022570:	d8c02015 	stw	r3,128(sp)
 4022574:	dc001f15 	stw	r16,124(sp)
 4022578:	008001c4 	movi	r2,7
 402257c:	14012d16 	blt	r2,r16,4022a34 <___vfprintf_internal_r+0x1570>
 4022580:	8c400204 	addi	r17,r17,8
 4022584:	d9403a17 	ldw	r5,232(sp)
 4022588:	dcc022c4 	addi	r19,sp,139
 402258c:	84000044 	addi	r16,r16,1
 4022590:	1947883a 	add	r3,r3,r5
 4022594:	8cc00015 	stw	r19,0(r17)
 4022598:	89400115 	stw	r5,4(r17)
 402259c:	d8c02015 	stw	r3,128(sp)
 40225a0:	dc001f15 	stw	r16,124(sp)
 40225a4:	008001c4 	movi	r2,7
 40225a8:	14000e16 	blt	r2,r16,40225e4 <___vfprintf_internal_r+0x1120>
 40225ac:	8a000204 	addi	r8,r17,8
 40225b0:	003db406 	br	4021c84 <__flash_rwdata_start+0xffff13c0>
 40225b4:	01000034 	movhi	r4,0
 40225b8:	21002684 	addi	r4,r4,154
 40225bc:	d9002c15 	stw	r4,176(sp)
 40225c0:	d9002c17 	ldw	r4,176(sp)
 40225c4:	1c07883a 	add	r3,r3,r16
 40225c8:	44000115 	stw	r16,4(r8)
 40225cc:	41000015 	stw	r4,0(r8)
 40225d0:	10800044 	addi	r2,r2,1
 40225d4:	d8c02015 	stw	r3,128(sp)
 40225d8:	d8801f15 	stw	r2,124(sp)
 40225dc:	010001c4 	movi	r4,7
 40225e0:	20bda70e 	bge	r4,r2,4021c80 <__flash_rwdata_start+0xffff13bc>
 40225e4:	b809883a 	mov	r4,r23
 40225e8:	b00b883a 	mov	r5,r22
 40225ec:	d9801e04 	addi	r6,sp,120
 40225f0:	40289c80 	call	40289c8 <__sprint_r>
 40225f4:	103ca81e 	bne	r2,zero,4021898 <__flash_rwdata_start+0xffff0fd4>
 40225f8:	d8c02017 	ldw	r3,128(sp)
 40225fc:	da000404 	addi	r8,sp,16
 4022600:	003da006 	br	4021c84 <__flash_rwdata_start+0xffff13c0>
 4022604:	b809883a 	mov	r4,r23
 4022608:	b00b883a 	mov	r5,r22
 402260c:	d9801e04 	addi	r6,sp,120
 4022610:	40289c80 	call	40289c8 <__sprint_r>
 4022614:	103dd626 	beq	r2,zero,4021d70 <__flash_rwdata_start+0xffff14ac>
 4022618:	003c9f06 	br	4021898 <__flash_rwdata_start+0xffff0fd4>
 402261c:	10803fcc 	andi	r2,r2,255
 4022620:	1000201e 	bne	r2,zero,40226a4 <___vfprintf_internal_r+0x11e0>
 4022624:	e080004c 	andi	r2,fp,1
 4022628:	10001e26 	beq	r2,zero,40226a4 <___vfprintf_internal_r+0x11e0>
 402262c:	00800c04 	movi	r2,48
 4022630:	d8c01dc4 	addi	r3,sp,119
 4022634:	d8801dc5 	stb	r2,119(sp)
 4022638:	dc403c17 	ldw	r17,240(sp)
 402263c:	d8c03115 	stw	r3,196(sp)
 4022640:	003cf806 	br	4021a24 <__flash_rwdata_start+0xffff1160>
 4022644:	b809883a 	mov	r4,r23
 4022648:	b00b883a 	mov	r5,r22
 402264c:	d9801e04 	addi	r6,sp,120
 4022650:	40289c80 	call	40289c8 <__sprint_r>
 4022654:	103c901e 	bne	r2,zero,4021898 <__flash_rwdata_start+0xffff0fd4>
 4022658:	d8c02017 	ldw	r3,128(sp)
 402265c:	da000404 	addi	r8,sp,16
 4022660:	003d7b06 	br	4021c50 <__flash_rwdata_start+0xffff138c>
 4022664:	b809883a 	mov	r4,r23
 4022668:	b00b883a 	mov	r5,r22
 402266c:	d9801e04 	addi	r6,sp,120
 4022670:	40289c80 	call	40289c8 <__sprint_r>
 4022674:	103c881e 	bne	r2,zero,4021898 <__flash_rwdata_start+0xffff0fd4>
 4022678:	d8c02017 	ldw	r3,128(sp)
 402267c:	da000404 	addi	r8,sp,16
 4022680:	003d3906 	br	4021b68 <__flash_rwdata_start+0xffff12a4>
 4022684:	b809883a 	mov	r4,r23
 4022688:	b00b883a 	mov	r5,r22
 402268c:	d9801e04 	addi	r6,sp,120
 4022690:	40289c80 	call	40289c8 <__sprint_r>
 4022694:	103c801e 	bne	r2,zero,4021898 <__flash_rwdata_start+0xffff0fd4>
 4022698:	d8c02017 	ldw	r3,128(sp)
 402269c:	da000404 	addi	r8,sp,16
 40226a0:	003d3f06 	br	4021ba0 <__flash_rwdata_start+0xffff12dc>
 40226a4:	d8c01e04 	addi	r3,sp,120
 40226a8:	0023883a 	mov	r17,zero
 40226ac:	d8c03115 	stw	r3,196(sp)
 40226b0:	003cdc06 	br	4021a24 <__flash_rwdata_start+0xffff1160>
 40226b4:	d9403b17 	ldw	r5,236(sp)
 40226b8:	d8c01e04 	addi	r3,sp,120
 40226bc:	908003cc 	andi	r2,r18,15
 40226c0:	a808973a 	slli	r4,r21,28
 40226c4:	2885883a 	add	r2,r5,r2
 40226c8:	9024d13a 	srli	r18,r18,4
 40226cc:	10800003 	ldbu	r2,0(r2)
 40226d0:	a82ad13a 	srli	r21,r21,4
 40226d4:	18ffffc4 	addi	r3,r3,-1
 40226d8:	24a4b03a 	or	r18,r4,r18
 40226dc:	18800005 	stb	r2,0(r3)
 40226e0:	9544b03a 	or	r2,r18,r21
 40226e4:	103ff51e 	bne	r2,zero,40226bc <__flash_rwdata_start+0xffff1df8>
 40226e8:	d9402817 	ldw	r5,160(sp)
 40226ec:	d8c03115 	stw	r3,196(sp)
 40226f0:	28e3c83a 	sub	r17,r5,r3
 40226f4:	003ccb06 	br	4021a24 <__flash_rwdata_start+0xffff1160>
 40226f8:	dc002617 	ldw	r16,152(sp)
 40226fc:	0401ab0e 	bge	zero,r16,4022dac <___vfprintf_internal_r+0x18e8>
 4022700:	d8803317 	ldw	r2,204(sp)
 4022704:	d9403117 	ldw	r5,196(sp)
 4022708:	d9003417 	ldw	r4,208(sp)
 402270c:	1023883a 	mov	r17,r2
 4022710:	28a1883a 	add	r16,r5,r2
 4022714:	2080010e 	bge	r4,r2,402271c <___vfprintf_internal_r+0x1258>
 4022718:	2023883a 	mov	r17,r4
 402271c:	04400b0e 	bge	zero,r17,402274c <___vfprintf_internal_r+0x1288>
 4022720:	d8801f17 	ldw	r2,124(sp)
 4022724:	d9403117 	ldw	r5,196(sp)
 4022728:	1c47883a 	add	r3,r3,r17
 402272c:	10800044 	addi	r2,r2,1
 4022730:	41400015 	stw	r5,0(r8)
 4022734:	44400115 	stw	r17,4(r8)
 4022738:	d8c02015 	stw	r3,128(sp)
 402273c:	d8801f15 	stw	r2,124(sp)
 4022740:	010001c4 	movi	r4,7
 4022744:	20826716 	blt	r4,r2,40230e4 <___vfprintf_internal_r+0x1c20>
 4022748:	42000204 	addi	r8,r8,8
 402274c:	88026316 	blt	r17,zero,40230dc <___vfprintf_internal_r+0x1c18>
 4022750:	d8803417 	ldw	r2,208(sp)
 4022754:	1463c83a 	sub	r17,r2,r17
 4022758:	0440590e 	bge	zero,r17,40228c0 <___vfprintf_internal_r+0x13fc>
 402275c:	04c00404 	movi	r19,16
 4022760:	d8801f17 	ldw	r2,124(sp)
 4022764:	9c41770e 	bge	r19,r17,4022d44 <___vfprintf_internal_r+0x1880>
 4022768:	01400034 	movhi	r5,0
 402276c:	29402684 	addi	r5,r5,154
 4022770:	d9402c15 	stw	r5,176(sp)
 4022774:	054001c4 	movi	r21,7
 4022778:	00000306 	br	4022788 <___vfprintf_internal_r+0x12c4>
 402277c:	42000204 	addi	r8,r8,8
 4022780:	8c7ffc04 	addi	r17,r17,-16
 4022784:	9c41720e 	bge	r19,r17,4022d50 <___vfprintf_internal_r+0x188c>
 4022788:	18c00404 	addi	r3,r3,16
 402278c:	10800044 	addi	r2,r2,1
 4022790:	45000015 	stw	r20,0(r8)
 4022794:	44c00115 	stw	r19,4(r8)
 4022798:	d8c02015 	stw	r3,128(sp)
 402279c:	d8801f15 	stw	r2,124(sp)
 40227a0:	a8bff60e 	bge	r21,r2,402277c <__flash_rwdata_start+0xffff1eb8>
 40227a4:	b809883a 	mov	r4,r23
 40227a8:	b00b883a 	mov	r5,r22
 40227ac:	d9801e04 	addi	r6,sp,120
 40227b0:	40289c80 	call	40289c8 <__sprint_r>
 40227b4:	103c381e 	bne	r2,zero,4021898 <__flash_rwdata_start+0xffff0fd4>
 40227b8:	d8c02017 	ldw	r3,128(sp)
 40227bc:	d8801f17 	ldw	r2,124(sp)
 40227c0:	da000404 	addi	r8,sp,16
 40227c4:	003fee06 	br	4022780 <__flash_rwdata_start+0xffff1ebc>
 40227c8:	b809883a 	mov	r4,r23
 40227cc:	b00b883a 	mov	r5,r22
 40227d0:	d9801e04 	addi	r6,sp,120
 40227d4:	40289c80 	call	40289c8 <__sprint_r>
 40227d8:	103c2f1e 	bne	r2,zero,4021898 <__flash_rwdata_start+0xffff0fd4>
 40227dc:	d8c02017 	ldw	r3,128(sp)
 40227e0:	d8802787 	ldb	r2,158(sp)
 40227e4:	da000404 	addi	r8,sp,16
 40227e8:	003cd206 	br	4021b34 <__flash_rwdata_start+0xffff1270>
 40227ec:	00800084 	movi	r2,2
 40227f0:	9546b03a 	or	r3,r18,r21
 40227f4:	003d9f06 	br	4021e74 <__flash_rwdata_start+0xffff15b0>
 40227f8:	d8803317 	ldw	r2,204(sp)
 40227fc:	14ffffc4 	addi	r19,r2,-1
 4022800:	04ff600e 	bge	zero,r19,4022584 <__flash_rwdata_start+0xffff1cc0>
 4022804:	05400404 	movi	r21,16
 4022808:	acc07e0e 	bge	r21,r19,4022a04 <___vfprintf_internal_r+0x1540>
 402280c:	01400034 	movhi	r5,0
 4022810:	29402684 	addi	r5,r5,154
 4022814:	d9402c15 	stw	r5,176(sp)
 4022818:	01c001c4 	movi	r7,7
 402281c:	00000306 	br	402282c <___vfprintf_internal_r+0x1368>
 4022820:	8c400204 	addi	r17,r17,8
 4022824:	9cfffc04 	addi	r19,r19,-16
 4022828:	acc0790e 	bge	r21,r19,4022a10 <___vfprintf_internal_r+0x154c>
 402282c:	18c00404 	addi	r3,r3,16
 4022830:	84000044 	addi	r16,r16,1
 4022834:	8d000015 	stw	r20,0(r17)
 4022838:	8d400115 	stw	r21,4(r17)
 402283c:	d8c02015 	stw	r3,128(sp)
 4022840:	dc001f15 	stw	r16,124(sp)
 4022844:	3c3ff60e 	bge	r7,r16,4022820 <__flash_rwdata_start+0xffff1f5c>
 4022848:	b809883a 	mov	r4,r23
 402284c:	b00b883a 	mov	r5,r22
 4022850:	d9801e04 	addi	r6,sp,120
 4022854:	d9c03d15 	stw	r7,244(sp)
 4022858:	40289c80 	call	40289c8 <__sprint_r>
 402285c:	d9c03d17 	ldw	r7,244(sp)
 4022860:	103c0d1e 	bne	r2,zero,4021898 <__flash_rwdata_start+0xffff0fd4>
 4022864:	d8c02017 	ldw	r3,128(sp)
 4022868:	dc001f17 	ldw	r16,124(sp)
 402286c:	dc400404 	addi	r17,sp,16
 4022870:	003fec06 	br	4022824 <__flash_rwdata_start+0xffff1f60>
 4022874:	10803fcc 	andi	r2,r2,255
 4022878:	1080201c 	xori	r2,r2,128
 402287c:	10bfe004 	addi	r2,r2,-128
 4022880:	01000c04 	movi	r4,48
 4022884:	1101d726 	beq	r2,r4,4022fe4 <___vfprintf_internal_r+0x1b20>
 4022888:	d9403117 	ldw	r5,196(sp)
 402288c:	d8802817 	ldw	r2,160(sp)
 4022890:	193fffc5 	stb	r4,-1(r3)
 4022894:	297fffc4 	addi	r5,r5,-1
 4022898:	d9403115 	stw	r5,196(sp)
 402289c:	1163c83a 	sub	r17,r2,r5
 40228a0:	003c6006 	br	4021a24 <__flash_rwdata_start+0xffff1160>
 40228a4:	b809883a 	mov	r4,r23
 40228a8:	b00b883a 	mov	r5,r22
 40228ac:	d9801e04 	addi	r6,sp,120
 40228b0:	40289c80 	call	40289c8 <__sprint_r>
 40228b4:	103bf81e 	bne	r2,zero,4021898 <__flash_rwdata_start+0xffff0fd4>
 40228b8:	d8c02017 	ldw	r3,128(sp)
 40228bc:	da000404 	addi	r8,sp,16
 40228c0:	d9403117 	ldw	r5,196(sp)
 40228c4:	d9003417 	ldw	r4,208(sp)
 40228c8:	d8802617 	ldw	r2,152(sp)
 40228cc:	2923883a 	add	r17,r5,r4
 40228d0:	d9403317 	ldw	r5,204(sp)
 40228d4:	11400216 	blt	r2,r5,40228e0 <___vfprintf_internal_r+0x141c>
 40228d8:	e100004c 	andi	r4,fp,1
 40228dc:	20000d26 	beq	r4,zero,4022914 <___vfprintf_internal_r+0x1450>
 40228e0:	d9003817 	ldw	r4,224(sp)
 40228e4:	d9403517 	ldw	r5,212(sp)
 40228e8:	1907883a 	add	r3,r3,r4
 40228ec:	d9001f17 	ldw	r4,124(sp)
 40228f0:	41400015 	stw	r5,0(r8)
 40228f4:	d9403817 	ldw	r5,224(sp)
 40228f8:	21000044 	addi	r4,r4,1
 40228fc:	d8c02015 	stw	r3,128(sp)
 4022900:	41400115 	stw	r5,4(r8)
 4022904:	d9001f15 	stw	r4,124(sp)
 4022908:	014001c4 	movi	r5,7
 402290c:	2901fd16 	blt	r5,r4,4023104 <___vfprintf_internal_r+0x1c40>
 4022910:	42000204 	addi	r8,r8,8
 4022914:	d9003317 	ldw	r4,204(sp)
 4022918:	2085c83a 	sub	r2,r4,r2
 402291c:	8449c83a 	sub	r4,r16,r17
 4022920:	1021883a 	mov	r16,r2
 4022924:	2080010e 	bge	r4,r2,402292c <___vfprintf_internal_r+0x1468>
 4022928:	2021883a 	mov	r16,r4
 402292c:	04000a0e 	bge	zero,r16,4022958 <___vfprintf_internal_r+0x1494>
 4022930:	d9001f17 	ldw	r4,124(sp)
 4022934:	1c07883a 	add	r3,r3,r16
 4022938:	44400015 	stw	r17,0(r8)
 402293c:	21000044 	addi	r4,r4,1
 4022940:	44000115 	stw	r16,4(r8)
 4022944:	d8c02015 	stw	r3,128(sp)
 4022948:	d9001f15 	stw	r4,124(sp)
 402294c:	014001c4 	movi	r5,7
 4022950:	29021816 	blt	r5,r4,40231b4 <___vfprintf_internal_r+0x1cf0>
 4022954:	42000204 	addi	r8,r8,8
 4022958:	80021016 	blt	r16,zero,402319c <___vfprintf_internal_r+0x1cd8>
 402295c:	1421c83a 	sub	r16,r2,r16
 4022960:	043cc80e 	bge	zero,r16,4021c84 <__flash_rwdata_start+0xffff13c0>
 4022964:	04400404 	movi	r17,16
 4022968:	d8801f17 	ldw	r2,124(sp)
 402296c:	8c3f110e 	bge	r17,r16,40225b4 <__flash_rwdata_start+0xffff1cf0>
 4022970:	01400034 	movhi	r5,0
 4022974:	29402684 	addi	r5,r5,154
 4022978:	d9402c15 	stw	r5,176(sp)
 402297c:	04c001c4 	movi	r19,7
 4022980:	00000306 	br	4022990 <___vfprintf_internal_r+0x14cc>
 4022984:	42000204 	addi	r8,r8,8
 4022988:	843ffc04 	addi	r16,r16,-16
 402298c:	8c3f0c0e 	bge	r17,r16,40225c0 <__flash_rwdata_start+0xffff1cfc>
 4022990:	18c00404 	addi	r3,r3,16
 4022994:	10800044 	addi	r2,r2,1
 4022998:	45000015 	stw	r20,0(r8)
 402299c:	44400115 	stw	r17,4(r8)
 40229a0:	d8c02015 	stw	r3,128(sp)
 40229a4:	d8801f15 	stw	r2,124(sp)
 40229a8:	98bff60e 	bge	r19,r2,4022984 <__flash_rwdata_start+0xffff20c0>
 40229ac:	b809883a 	mov	r4,r23
 40229b0:	b00b883a 	mov	r5,r22
 40229b4:	d9801e04 	addi	r6,sp,120
 40229b8:	40289c80 	call	40289c8 <__sprint_r>
 40229bc:	103bb61e 	bne	r2,zero,4021898 <__flash_rwdata_start+0xffff0fd4>
 40229c0:	d8c02017 	ldw	r3,128(sp)
 40229c4:	d8801f17 	ldw	r2,124(sp)
 40229c8:	da000404 	addi	r8,sp,16
 40229cc:	003fee06 	br	4022988 <__flash_rwdata_start+0xffff20c4>
 40229d0:	e088703a 	and	r4,fp,r2
 40229d4:	203ec01e 	bne	r4,zero,40224d8 <__flash_rwdata_start+0xffff1c14>
 40229d8:	dc001f17 	ldw	r16,124(sp)
 40229dc:	d9003117 	ldw	r4,196(sp)
 40229e0:	40800115 	stw	r2,4(r8)
 40229e4:	84000044 	addi	r16,r16,1
 40229e8:	41000015 	stw	r4,0(r8)
 40229ec:	d8c02015 	stw	r3,128(sp)
 40229f0:	dc001f15 	stw	r16,124(sp)
 40229f4:	008001c4 	movi	r2,7
 40229f8:	14000e16 	blt	r2,r16,4022a34 <___vfprintf_internal_r+0x1570>
 40229fc:	44400204 	addi	r17,r8,8
 4022a00:	003ee006 	br	4022584 <__flash_rwdata_start+0xffff1cc0>
 4022a04:	01000034 	movhi	r4,0
 4022a08:	21002684 	addi	r4,r4,154
 4022a0c:	d9002c15 	stw	r4,176(sp)
 4022a10:	d8802c17 	ldw	r2,176(sp)
 4022a14:	1cc7883a 	add	r3,r3,r19
 4022a18:	84000044 	addi	r16,r16,1
 4022a1c:	88800015 	stw	r2,0(r17)
 4022a20:	8cc00115 	stw	r19,4(r17)
 4022a24:	d8c02015 	stw	r3,128(sp)
 4022a28:	dc001f15 	stw	r16,124(sp)
 4022a2c:	008001c4 	movi	r2,7
 4022a30:	143ed30e 	bge	r2,r16,4022580 <__flash_rwdata_start+0xffff1cbc>
 4022a34:	b809883a 	mov	r4,r23
 4022a38:	b00b883a 	mov	r5,r22
 4022a3c:	d9801e04 	addi	r6,sp,120
 4022a40:	40289c80 	call	40289c8 <__sprint_r>
 4022a44:	103b941e 	bne	r2,zero,4021898 <__flash_rwdata_start+0xffff0fd4>
 4022a48:	d8c02017 	ldw	r3,128(sp)
 4022a4c:	dc001f17 	ldw	r16,124(sp)
 4022a50:	dc400404 	addi	r17,sp,16
 4022a54:	003ecb06 	br	4022584 <__flash_rwdata_start+0xffff1cc0>
 4022a58:	b809883a 	mov	r4,r23
 4022a5c:	b00b883a 	mov	r5,r22
 4022a60:	d9801e04 	addi	r6,sp,120
 4022a64:	40289c80 	call	40289c8 <__sprint_r>
 4022a68:	103b8b1e 	bne	r2,zero,4021898 <__flash_rwdata_start+0xffff0fd4>
 4022a6c:	d8c02017 	ldw	r3,128(sp)
 4022a70:	dc001f17 	ldw	r16,124(sp)
 4022a74:	da000404 	addi	r8,sp,16
 4022a78:	003ea206 	br	4022504 <__flash_rwdata_start+0xffff1c40>
 4022a7c:	b809883a 	mov	r4,r23
 4022a80:	b00b883a 	mov	r5,r22
 4022a84:	d9801e04 	addi	r6,sp,120
 4022a88:	40289c80 	call	40289c8 <__sprint_r>
 4022a8c:	103b821e 	bne	r2,zero,4021898 <__flash_rwdata_start+0xffff0fd4>
 4022a90:	d8c02017 	ldw	r3,128(sp)
 4022a94:	dc001f17 	ldw	r16,124(sp)
 4022a98:	dc400404 	addi	r17,sp,16
 4022a9c:	003ea406 	br	4022530 <__flash_rwdata_start+0xffff1c6c>
 4022aa0:	b809883a 	mov	r4,r23
 4022aa4:	b00b883a 	mov	r5,r22
 4022aa8:	d9801e04 	addi	r6,sp,120
 4022aac:	40289c80 	call	40289c8 <__sprint_r>
 4022ab0:	103b791e 	bne	r2,zero,4021898 <__flash_rwdata_start+0xffff0fd4>
 4022ab4:	d8c02017 	ldw	r3,128(sp)
 4022ab8:	da000404 	addi	r8,sp,16
 4022abc:	003c3b06 	br	4021bac <__flash_rwdata_start+0xffff12e8>
 4022ac0:	04a5c83a 	sub	r18,zero,r18
 4022ac4:	9004c03a 	cmpne	r2,r18,zero
 4022ac8:	056bc83a 	sub	r21,zero,r21
 4022acc:	a8abc83a 	sub	r21,r21,r2
 4022ad0:	04c00b44 	movi	r19,45
 4022ad4:	dcc02785 	stb	r19,158(sp)
 4022ad8:	da403215 	stw	r9,200(sp)
 4022adc:	00800044 	movi	r2,1
 4022ae0:	9546b03a 	or	r3,r18,r21
 4022ae4:	003bb506 	br	40219bc <__flash_rwdata_start+0xffff10f8>
 4022ae8:	da003f15 	stw	r8,252(sp)
 4022aec:	da403e15 	stw	r9,248(sp)
 4022af0:	40286240 	call	4028624 <__fpclassifyd>
 4022af4:	da003f17 	ldw	r8,252(sp)
 4022af8:	da403e17 	ldw	r9,248(sp)
 4022afc:	1000e526 	beq	r2,zero,4022e94 <___vfprintf_internal_r+0x19d0>
 4022b00:	04fff7c4 	movi	r19,-33
 4022b04:	00bfffc4 	movi	r2,-1
 4022b08:	84e6703a 	and	r19,r16,r19
 4022b0c:	48822526 	beq	r9,r2,40233a4 <___vfprintf_internal_r+0x1ee0>
 4022b10:	008011c4 	movi	r2,71
 4022b14:	98821626 	beq	r19,r2,4023370 <___vfprintf_internal_r+0x1eac>
 4022b18:	d9003917 	ldw	r4,228(sp)
 4022b1c:	e0c04014 	ori	r3,fp,256
 4022b20:	d8c02d15 	stw	r3,180(sp)
 4022b24:	20022116 	blt	r4,zero,40233ac <___vfprintf_internal_r+0x1ee8>
 4022b28:	dc403917 	ldw	r17,228(sp)
 4022b2c:	d8002b05 	stb	zero,172(sp)
 4022b30:	00801984 	movi	r2,102
 4022b34:	80814d26 	beq	r16,r2,402306c <___vfprintf_internal_r+0x1ba8>
 4022b38:	00801184 	movi	r2,70
 4022b3c:	80814b26 	beq	r16,r2,402306c <___vfprintf_internal_r+0x1ba8>
 4022b40:	00801144 	movi	r2,69
 4022b44:	98822626 	beq	r19,r2,40233e0 <___vfprintf_internal_r+0x1f1c>
 4022b48:	482b883a 	mov	r21,r9
 4022b4c:	d8802604 	addi	r2,sp,152
 4022b50:	d8800115 	stw	r2,4(sp)
 4022b54:	d9403717 	ldw	r5,220(sp)
 4022b58:	d8802504 	addi	r2,sp,148
 4022b5c:	d8800215 	stw	r2,8(sp)
 4022b60:	d8802104 	addi	r2,sp,132
 4022b64:	dd400015 	stw	r21,0(sp)
 4022b68:	d8800315 	stw	r2,12(sp)
 4022b6c:	b809883a 	mov	r4,r23
 4022b70:	880d883a 	mov	r6,r17
 4022b74:	01c00084 	movi	r7,2
 4022b78:	da003f15 	stw	r8,252(sp)
 4022b7c:	da403e15 	stw	r9,248(sp)
 4022b80:	40239780 	call	4023978 <_dtoa_r>
 4022b84:	d8803115 	stw	r2,196(sp)
 4022b88:	008019c4 	movi	r2,103
 4022b8c:	da003f17 	ldw	r8,252(sp)
 4022b90:	da403e17 	ldw	r9,248(sp)
 4022b94:	80800226 	beq	r16,r2,4022ba0 <___vfprintf_internal_r+0x16dc>
 4022b98:	008011c4 	movi	r2,71
 4022b9c:	8081451e 	bne	r16,r2,40230b4 <___vfprintf_internal_r+0x1bf0>
 4022ba0:	e080004c 	andi	r2,fp,1
 4022ba4:	10021e26 	beq	r2,zero,4023420 <___vfprintf_internal_r+0x1f5c>
 4022ba8:	d8c03117 	ldw	r3,196(sp)
 4022bac:	1d55883a 	add	r10,r3,r21
 4022bb0:	d9003717 	ldw	r4,220(sp)
 4022bb4:	880b883a 	mov	r5,r17
 4022bb8:	000d883a 	mov	r6,zero
 4022bbc:	000f883a 	mov	r7,zero
 4022bc0:	da003f15 	stw	r8,252(sp)
 4022bc4:	da403e15 	stw	r9,248(sp)
 4022bc8:	da803d15 	stw	r10,244(sp)
 4022bcc:	402c6400 	call	402c640 <__eqdf2>
 4022bd0:	da003f17 	ldw	r8,252(sp)
 4022bd4:	da403e17 	ldw	r9,248(sp)
 4022bd8:	da803d17 	ldw	r10,244(sp)
 4022bdc:	1001a126 	beq	r2,zero,4023264 <___vfprintf_internal_r+0x1da0>
 4022be0:	d8802117 	ldw	r2,132(sp)
 4022be4:	1280062e 	bgeu	r2,r10,4022c00 <___vfprintf_internal_r+0x173c>
 4022be8:	01000c04 	movi	r4,48
 4022bec:	10c00044 	addi	r3,r2,1
 4022bf0:	d8c02115 	stw	r3,132(sp)
 4022bf4:	11000005 	stb	r4,0(r2)
 4022bf8:	d8802117 	ldw	r2,132(sp)
 4022bfc:	12bffb36 	bltu	r2,r10,4022bec <__flash_rwdata_start+0xffff2328>
 4022c00:	d8c03117 	ldw	r3,196(sp)
 4022c04:	10c5c83a 	sub	r2,r2,r3
 4022c08:	d8803315 	stw	r2,204(sp)
 4022c0c:	008011c4 	movi	r2,71
 4022c10:	98817f26 	beq	r19,r2,4023210 <___vfprintf_internal_r+0x1d4c>
 4022c14:	00801944 	movi	r2,101
 4022c18:	14023e0e 	bge	r2,r16,4023514 <___vfprintf_internal_r+0x2050>
 4022c1c:	d8c02617 	ldw	r3,152(sp)
 4022c20:	00801984 	movi	r2,102
 4022c24:	d8c03415 	stw	r3,208(sp)
 4022c28:	8081f326 	beq	r16,r2,40233f8 <___vfprintf_internal_r+0x1f34>
 4022c2c:	d8c03417 	ldw	r3,208(sp)
 4022c30:	d9003317 	ldw	r4,204(sp)
 4022c34:	1901e116 	blt	r3,r4,40233bc <___vfprintf_internal_r+0x1ef8>
 4022c38:	e080004c 	andi	r2,fp,1
 4022c3c:	1001ea26 	beq	r2,zero,40233e8 <___vfprintf_internal_r+0x1f24>
 4022c40:	d8c03417 	ldw	r3,208(sp)
 4022c44:	1c400044 	addi	r17,r3,1
 4022c48:	8839883a 	mov	fp,r17
 4022c4c:	8801e216 	blt	r17,zero,40233d8 <___vfprintf_internal_r+0x1f14>
 4022c50:	dd402b07 	ldb	r21,172(sp)
 4022c54:	a801661e 	bne	r21,zero,40231f0 <___vfprintf_internal_r+0x1d2c>
 4022c58:	df002b15 	stw	fp,172(sp)
 4022c5c:	dcc02783 	ldbu	r19,158(sp)
 4022c60:	df002d17 	ldw	fp,180(sp)
 4022c64:	d8003215 	stw	zero,200(sp)
 4022c68:	dc802d15 	stw	r18,180(sp)
 4022c6c:	003b7206 	br	4021a38 <__flash_rwdata_start+0xffff1174>
 4022c70:	e4000007 	ldb	r16,0(fp)
 4022c74:	e005883a 	mov	r2,fp
 4022c78:	003a7806 	br	402165c <__flash_rwdata_start+0xffff0d98>
 4022c7c:	e0c0100c 	andi	r3,fp,64
 4022c80:	1800b326 	beq	r3,zero,4022f50 <___vfprintf_internal_r+0x1a8c>
 4022c84:	d9002d17 	ldw	r4,180(sp)
 4022c88:	1480000b 	ldhu	r18,0(r2)
 4022c8c:	002b883a 	mov	r21,zero
 4022c90:	21000104 	addi	r4,r4,4
 4022c94:	d9002d15 	stw	r4,180(sp)
 4022c98:	003cd506 	br	4021ff0 <__flash_rwdata_start+0xffff172c>
 4022c9c:	e080100c 	andi	r2,fp,64
 4022ca0:	1000a326 	beq	r2,zero,4022f30 <___vfprintf_internal_r+0x1a6c>
 4022ca4:	d8802d17 	ldw	r2,180(sp)
 4022ca8:	002b883a 	mov	r21,zero
 4022cac:	1480000b 	ldhu	r18,0(r2)
 4022cb0:	10800104 	addi	r2,r2,4
 4022cb4:	d8802d15 	stw	r2,180(sp)
 4022cb8:	9007883a 	mov	r3,r18
 4022cbc:	00800044 	movi	r2,1
 4022cc0:	003c6c06 	br	4021e74 <__flash_rwdata_start+0xffff15b0>
 4022cc4:	e080100c 	andi	r2,fp,64
 4022cc8:	10009226 	beq	r2,zero,4022f14 <___vfprintf_internal_r+0x1a50>
 4022ccc:	1c80000f 	ldh	r18,0(r3)
 4022cd0:	d8802d17 	ldw	r2,180(sp)
 4022cd4:	902bd7fa 	srai	r21,r18,31
 4022cd8:	10800104 	addi	r2,r2,4
 4022cdc:	d8802d15 	stw	r2,180(sp)
 4022ce0:	a805883a 	mov	r2,r21
 4022ce4:	003b3006 	br	40219a8 <__flash_rwdata_start+0xffff10e4>
 4022ce8:	e080100c 	andi	r2,fp,64
 4022cec:	10008126 	beq	r2,zero,4022ef4 <___vfprintf_internal_r+0x1a30>
 4022cf0:	d8c02d17 	ldw	r3,180(sp)
 4022cf4:	002b883a 	mov	r21,zero
 4022cf8:	0005883a 	mov	r2,zero
 4022cfc:	1c80000b 	ldhu	r18,0(r3)
 4022d00:	18c00104 	addi	r3,r3,4
 4022d04:	d8c02d15 	stw	r3,180(sp)
 4022d08:	9007883a 	mov	r3,r18
 4022d0c:	003c5906 	br	4021e74 <__flash_rwdata_start+0xffff15b0>
 4022d10:	e080040c 	andi	r2,fp,16
 4022d14:	1000701e 	bne	r2,zero,4022ed8 <___vfprintf_internal_r+0x1a14>
 4022d18:	e080100c 	andi	r2,fp,64
 4022d1c:	10014626 	beq	r2,zero,4023238 <___vfprintf_internal_r+0x1d74>
 4022d20:	d9002d17 	ldw	r4,180(sp)
 4022d24:	d9402f17 	ldw	r5,188(sp)
 4022d28:	20800017 	ldw	r2,0(r4)
 4022d2c:	21000104 	addi	r4,r4,4
 4022d30:	d9002d15 	stw	r4,180(sp)
 4022d34:	1140000d 	sth	r5,0(r2)
 4022d38:	003a1d06 	br	40215b0 <__flash_rwdata_start+0xffff0cec>
 4022d3c:	00800084 	movi	r2,2
 4022d40:	003c4c06 	br	4021e74 <__flash_rwdata_start+0xffff15b0>
 4022d44:	01000034 	movhi	r4,0
 4022d48:	21002684 	addi	r4,r4,154
 4022d4c:	d9002c15 	stw	r4,176(sp)
 4022d50:	d9002c17 	ldw	r4,176(sp)
 4022d54:	1c47883a 	add	r3,r3,r17
 4022d58:	10800044 	addi	r2,r2,1
 4022d5c:	41000015 	stw	r4,0(r8)
 4022d60:	44400115 	stw	r17,4(r8)
 4022d64:	d8c02015 	stw	r3,128(sp)
 4022d68:	d8801f15 	stw	r2,124(sp)
 4022d6c:	010001c4 	movi	r4,7
 4022d70:	20becc16 	blt	r4,r2,40228a4 <__flash_rwdata_start+0xffff1fe0>
 4022d74:	42000204 	addi	r8,r8,8
 4022d78:	003ed106 	br	40228c0 <__flash_rwdata_start+0xffff1ffc>
 4022d7c:	01000034 	movhi	r4,0
 4022d80:	21002684 	addi	r4,r4,154
 4022d84:	d9002c15 	stw	r4,176(sp)
 4022d88:	003ba706 	br	4021c28 <__flash_rwdata_start+0xffff1364>
 4022d8c:	b809883a 	mov	r4,r23
 4022d90:	b00b883a 	mov	r5,r22
 4022d94:	d9801e04 	addi	r6,sp,120
 4022d98:	40289c80 	call	40289c8 <__sprint_r>
 4022d9c:	103abe1e 	bne	r2,zero,4021898 <__flash_rwdata_start+0xffff0fd4>
 4022da0:	d8c02017 	ldw	r3,128(sp)
 4022da4:	da000404 	addi	r8,sp,16
 4022da8:	003d6c06 	br	402235c <__flash_rwdata_start+0xffff1a98>
 4022dac:	d8801f17 	ldw	r2,124(sp)
 4022db0:	01400034 	movhi	r5,0
 4022db4:	01000044 	movi	r4,1
 4022db8:	18c00044 	addi	r3,r3,1
 4022dbc:	10800044 	addi	r2,r2,1
 4022dc0:	29402604 	addi	r5,r5,152
 4022dc4:	41000115 	stw	r4,4(r8)
 4022dc8:	41400015 	stw	r5,0(r8)
 4022dcc:	d8c02015 	stw	r3,128(sp)
 4022dd0:	d8801f15 	stw	r2,124(sp)
 4022dd4:	010001c4 	movi	r4,7
 4022dd8:	20806716 	blt	r4,r2,4022f78 <___vfprintf_internal_r+0x1ab4>
 4022ddc:	42000204 	addi	r8,r8,8
 4022de0:	8000041e 	bne	r16,zero,4022df4 <___vfprintf_internal_r+0x1930>
 4022de4:	d8803317 	ldw	r2,204(sp)
 4022de8:	1000021e 	bne	r2,zero,4022df4 <___vfprintf_internal_r+0x1930>
 4022dec:	e080004c 	andi	r2,fp,1
 4022df0:	103ba426 	beq	r2,zero,4021c84 <__flash_rwdata_start+0xffff13c0>
 4022df4:	d9003817 	ldw	r4,224(sp)
 4022df8:	d8801f17 	ldw	r2,124(sp)
 4022dfc:	d9403517 	ldw	r5,212(sp)
 4022e00:	1907883a 	add	r3,r3,r4
 4022e04:	10800044 	addi	r2,r2,1
 4022e08:	41000115 	stw	r4,4(r8)
 4022e0c:	41400015 	stw	r5,0(r8)
 4022e10:	d8c02015 	stw	r3,128(sp)
 4022e14:	d8801f15 	stw	r2,124(sp)
 4022e18:	010001c4 	movi	r4,7
 4022e1c:	20815716 	blt	r4,r2,402337c <___vfprintf_internal_r+0x1eb8>
 4022e20:	42000204 	addi	r8,r8,8
 4022e24:	0421c83a 	sub	r16,zero,r16
 4022e28:	0400810e 	bge	zero,r16,4023030 <___vfprintf_internal_r+0x1b6c>
 4022e2c:	04400404 	movi	r17,16
 4022e30:	8c00bd0e 	bge	r17,r16,4023128 <___vfprintf_internal_r+0x1c64>
 4022e34:	01400034 	movhi	r5,0
 4022e38:	29402684 	addi	r5,r5,154
 4022e3c:	d9402c15 	stw	r5,176(sp)
 4022e40:	04c001c4 	movi	r19,7
 4022e44:	00000306 	br	4022e54 <___vfprintf_internal_r+0x1990>
 4022e48:	42000204 	addi	r8,r8,8
 4022e4c:	843ffc04 	addi	r16,r16,-16
 4022e50:	8c00b80e 	bge	r17,r16,4023134 <___vfprintf_internal_r+0x1c70>
 4022e54:	18c00404 	addi	r3,r3,16
 4022e58:	10800044 	addi	r2,r2,1
 4022e5c:	45000015 	stw	r20,0(r8)
 4022e60:	44400115 	stw	r17,4(r8)
 4022e64:	d8c02015 	stw	r3,128(sp)
 4022e68:	d8801f15 	stw	r2,124(sp)
 4022e6c:	98bff60e 	bge	r19,r2,4022e48 <__flash_rwdata_start+0xffff2584>
 4022e70:	b809883a 	mov	r4,r23
 4022e74:	b00b883a 	mov	r5,r22
 4022e78:	d9801e04 	addi	r6,sp,120
 4022e7c:	40289c80 	call	40289c8 <__sprint_r>
 4022e80:	103a851e 	bne	r2,zero,4021898 <__flash_rwdata_start+0xffff0fd4>
 4022e84:	d8c02017 	ldw	r3,128(sp)
 4022e88:	d8801f17 	ldw	r2,124(sp)
 4022e8c:	da000404 	addi	r8,sp,16
 4022e90:	003fee06 	br	4022e4c <__flash_rwdata_start+0xffff2588>
 4022e94:	008011c4 	movi	r2,71
 4022e98:	1400d116 	blt	r2,r16,40231e0 <___vfprintf_internal_r+0x1d1c>
 4022e9c:	01000034 	movhi	r4,0
 4022ea0:	21001804 	addi	r4,r4,96
 4022ea4:	d9003115 	stw	r4,196(sp)
 4022ea8:	00c000c4 	movi	r3,3
 4022eac:	00bfdfc4 	movi	r2,-129
 4022eb0:	d8c02b15 	stw	r3,172(sp)
 4022eb4:	e0b8703a 	and	fp,fp,r2
 4022eb8:	dcc02783 	ldbu	r19,158(sp)
 4022ebc:	dc802d15 	stw	r18,180(sp)
 4022ec0:	1823883a 	mov	r17,r3
 4022ec4:	d8003215 	stw	zero,200(sp)
 4022ec8:	d8003415 	stw	zero,208(sp)
 4022ecc:	003ada06 	br	4021a38 <__flash_rwdata_start+0xffff1174>
 4022ed0:	4823883a 	mov	r17,r9
 4022ed4:	003c9406 	br	4022128 <__flash_rwdata_start+0xffff1864>
 4022ed8:	d9402d17 	ldw	r5,180(sp)
 4022edc:	d8c02f17 	ldw	r3,188(sp)
 4022ee0:	28800017 	ldw	r2,0(r5)
 4022ee4:	29400104 	addi	r5,r5,4
 4022ee8:	d9402d15 	stw	r5,180(sp)
 4022eec:	10c00015 	stw	r3,0(r2)
 4022ef0:	0039af06 	br	40215b0 <__flash_rwdata_start+0xffff0cec>
 4022ef4:	d9002d17 	ldw	r4,180(sp)
 4022ef8:	002b883a 	mov	r21,zero
 4022efc:	0005883a 	mov	r2,zero
 4022f00:	24800017 	ldw	r18,0(r4)
 4022f04:	21000104 	addi	r4,r4,4
 4022f08:	d9002d15 	stw	r4,180(sp)
 4022f0c:	9007883a 	mov	r3,r18
 4022f10:	003bd806 	br	4021e74 <__flash_rwdata_start+0xffff15b0>
 4022f14:	1c800017 	ldw	r18,0(r3)
 4022f18:	d8c02d17 	ldw	r3,180(sp)
 4022f1c:	902bd7fa 	srai	r21,r18,31
 4022f20:	18c00104 	addi	r3,r3,4
 4022f24:	d8c02d15 	stw	r3,180(sp)
 4022f28:	a805883a 	mov	r2,r21
 4022f2c:	003a9e06 	br	40219a8 <__flash_rwdata_start+0xffff10e4>
 4022f30:	d8c02d17 	ldw	r3,180(sp)
 4022f34:	002b883a 	mov	r21,zero
 4022f38:	00800044 	movi	r2,1
 4022f3c:	1c800017 	ldw	r18,0(r3)
 4022f40:	18c00104 	addi	r3,r3,4
 4022f44:	d8c02d15 	stw	r3,180(sp)
 4022f48:	9007883a 	mov	r3,r18
 4022f4c:	003bc906 	br	4021e74 <__flash_rwdata_start+0xffff15b0>
 4022f50:	d9402d17 	ldw	r5,180(sp)
 4022f54:	14800017 	ldw	r18,0(r2)
 4022f58:	002b883a 	mov	r21,zero
 4022f5c:	29400104 	addi	r5,r5,4
 4022f60:	d9402d15 	stw	r5,180(sp)
 4022f64:	003c2206 	br	4021ff0 <__flash_rwdata_start+0xffff172c>
 4022f68:	01000034 	movhi	r4,0
 4022f6c:	21001604 	addi	r4,r4,88
 4022f70:	d9003115 	stw	r4,196(sp)
 4022f74:	003ba606 	br	4021e10 <__flash_rwdata_start+0xffff154c>
 4022f78:	b809883a 	mov	r4,r23
 4022f7c:	b00b883a 	mov	r5,r22
 4022f80:	d9801e04 	addi	r6,sp,120
 4022f84:	40289c80 	call	40289c8 <__sprint_r>
 4022f88:	103a431e 	bne	r2,zero,4021898 <__flash_rwdata_start+0xffff0fd4>
 4022f8c:	dc002617 	ldw	r16,152(sp)
 4022f90:	d8c02017 	ldw	r3,128(sp)
 4022f94:	da000404 	addi	r8,sp,16
 4022f98:	003f9106 	br	4022de0 <__flash_rwdata_start+0xffff251c>
 4022f9c:	d8802e17 	ldw	r2,184(sp)
 4022fa0:	d8c02d15 	stw	r3,180(sp)
 4022fa4:	0085c83a 	sub	r2,zero,r2
 4022fa8:	d8802e15 	stw	r2,184(sp)
 4022fac:	e005883a 	mov	r2,fp
 4022fb0:	003a4206 	br	40218bc <__flash_rwdata_start+0xffff0ff8>
 4022fb4:	e0800044 	addi	r2,fp,1
 4022fb8:	9cc00814 	ori	r19,r19,32
 4022fbc:	e4000047 	ldb	r16,1(fp)
 4022fc0:	0039a606 	br	402165c <__flash_rwdata_start+0xffff0d98>
 4022fc4:	b809883a 	mov	r4,r23
 4022fc8:	b00b883a 	mov	r5,r22
 4022fcc:	d9801e04 	addi	r6,sp,120
 4022fd0:	40289c80 	call	40289c8 <__sprint_r>
 4022fd4:	103a301e 	bne	r2,zero,4021898 <__flash_rwdata_start+0xffff0fd4>
 4022fd8:	d8c02017 	ldw	r3,128(sp)
 4022fdc:	da000404 	addi	r8,sp,16
 4022fe0:	003cf006 	br	40223a4 <__flash_rwdata_start+0xffff1ae0>
 4022fe4:	d8c02817 	ldw	r3,160(sp)
 4022fe8:	d9003117 	ldw	r4,196(sp)
 4022fec:	1923c83a 	sub	r17,r3,r4
 4022ff0:	003a8c06 	br	4021a24 <__flash_rwdata_start+0xffff1160>
 4022ff4:	da003f15 	stw	r8,252(sp)
 4022ff8:	402142c0 	call	402142c <strlen>
 4022ffc:	1023883a 	mov	r17,r2
 4023000:	da003f17 	ldw	r8,252(sp)
 4023004:	883c4a0e 	bge	r17,zero,4022130 <__flash_rwdata_start+0xffff186c>
 4023008:	0005883a 	mov	r2,zero
 402300c:	003c4806 	br	4022130 <__flash_rwdata_start+0xffff186c>
 4023010:	b809883a 	mov	r4,r23
 4023014:	b00b883a 	mov	r5,r22
 4023018:	d9801e04 	addi	r6,sp,120
 402301c:	40289c80 	call	40289c8 <__sprint_r>
 4023020:	103a1d1e 	bne	r2,zero,4021898 <__flash_rwdata_start+0xffff0fd4>
 4023024:	d8c02017 	ldw	r3,128(sp)
 4023028:	d8801f17 	ldw	r2,124(sp)
 402302c:	da000404 	addi	r8,sp,16
 4023030:	d9403317 	ldw	r5,204(sp)
 4023034:	d9003117 	ldw	r4,196(sp)
 4023038:	10800044 	addi	r2,r2,1
 402303c:	1947883a 	add	r3,r3,r5
 4023040:	41000015 	stw	r4,0(r8)
 4023044:	41400115 	stw	r5,4(r8)
 4023048:	d8c02015 	stw	r3,128(sp)
 402304c:	d8801f15 	stw	r2,124(sp)
 4023050:	010001c4 	movi	r4,7
 4023054:	20bb0a0e 	bge	r4,r2,4021c80 <__flash_rwdata_start+0xffff13bc>
 4023058:	003d6206 	br	40225e4 <__flash_rwdata_start+0xffff1d20>
 402305c:	01000034 	movhi	r4,0
 4023060:	21002a84 	addi	r4,r4,170
 4023064:	d9003615 	stw	r4,216(sp)
 4023068:	003aa706 	br	4021b08 <__flash_rwdata_start+0xffff1244>
 402306c:	d8802604 	addi	r2,sp,152
 4023070:	d8800115 	stw	r2,4(sp)
 4023074:	d9403717 	ldw	r5,220(sp)
 4023078:	d8802504 	addi	r2,sp,148
 402307c:	d8800215 	stw	r2,8(sp)
 4023080:	d8802104 	addi	r2,sp,132
 4023084:	da400015 	stw	r9,0(sp)
 4023088:	d8800315 	stw	r2,12(sp)
 402308c:	b809883a 	mov	r4,r23
 4023090:	880d883a 	mov	r6,r17
 4023094:	01c000c4 	movi	r7,3
 4023098:	da003f15 	stw	r8,252(sp)
 402309c:	da403e15 	stw	r9,248(sp)
 40230a0:	40239780 	call	4023978 <_dtoa_r>
 40230a4:	da403e17 	ldw	r9,248(sp)
 40230a8:	da003f17 	ldw	r8,252(sp)
 40230ac:	d8803115 	stw	r2,196(sp)
 40230b0:	482b883a 	mov	r21,r9
 40230b4:	d8c03117 	ldw	r3,196(sp)
 40230b8:	00801184 	movi	r2,70
 40230bc:	1d55883a 	add	r10,r3,r21
 40230c0:	98bebb1e 	bne	r19,r2,4022bb0 <__flash_rwdata_start+0xffff22ec>
 40230c4:	19000007 	ldb	r4,0(r3)
 40230c8:	00800c04 	movi	r2,48
 40230cc:	2080df26 	beq	r4,r2,402344c <___vfprintf_internal_r+0x1f88>
 40230d0:	d8c02617 	ldw	r3,152(sp)
 40230d4:	50d5883a 	add	r10,r10,r3
 40230d8:	003eb506 	br	4022bb0 <__flash_rwdata_start+0xffff22ec>
 40230dc:	0023883a 	mov	r17,zero
 40230e0:	003d9b06 	br	4022750 <__flash_rwdata_start+0xffff1e8c>
 40230e4:	b809883a 	mov	r4,r23
 40230e8:	b00b883a 	mov	r5,r22
 40230ec:	d9801e04 	addi	r6,sp,120
 40230f0:	40289c80 	call	40289c8 <__sprint_r>
 40230f4:	1039e81e 	bne	r2,zero,4021898 <__flash_rwdata_start+0xffff0fd4>
 40230f8:	d8c02017 	ldw	r3,128(sp)
 40230fc:	da000404 	addi	r8,sp,16
 4023100:	003d9206 	br	402274c <__flash_rwdata_start+0xffff1e88>
 4023104:	b809883a 	mov	r4,r23
 4023108:	b00b883a 	mov	r5,r22
 402310c:	d9801e04 	addi	r6,sp,120
 4023110:	40289c80 	call	40289c8 <__sprint_r>
 4023114:	1039e01e 	bne	r2,zero,4021898 <__flash_rwdata_start+0xffff0fd4>
 4023118:	d8802617 	ldw	r2,152(sp)
 402311c:	d8c02017 	ldw	r3,128(sp)
 4023120:	da000404 	addi	r8,sp,16
 4023124:	003dfb06 	br	4022914 <__flash_rwdata_start+0xffff2050>
 4023128:	01000034 	movhi	r4,0
 402312c:	21002684 	addi	r4,r4,154
 4023130:	d9002c15 	stw	r4,176(sp)
 4023134:	d9002c17 	ldw	r4,176(sp)
 4023138:	1c07883a 	add	r3,r3,r16
 402313c:	10800044 	addi	r2,r2,1
 4023140:	41000015 	stw	r4,0(r8)
 4023144:	44000115 	stw	r16,4(r8)
 4023148:	d8c02015 	stw	r3,128(sp)
 402314c:	d8801f15 	stw	r2,124(sp)
 4023150:	010001c4 	movi	r4,7
 4023154:	20bfae16 	blt	r4,r2,4023010 <__flash_rwdata_start+0xffff274c>
 4023158:	42000204 	addi	r8,r8,8
 402315c:	003fb406 	br	4023030 <__flash_rwdata_start+0xffff276c>
 4023160:	00800184 	movi	r2,6
 4023164:	1240012e 	bgeu	r2,r9,402316c <___vfprintf_internal_r+0x1ca8>
 4023168:	1013883a 	mov	r9,r2
 402316c:	4823883a 	mov	r17,r9
 4023170:	4805883a 	mov	r2,r9
 4023174:	4800ac16 	blt	r9,zero,4023428 <___vfprintf_internal_r+0x1f64>
 4023178:	01400034 	movhi	r5,0
 402317c:	29402404 	addi	r5,r5,144
 4023180:	d8802b15 	stw	r2,172(sp)
 4023184:	dc802d15 	stw	r18,180(sp)
 4023188:	d8003215 	stw	zero,200(sp)
 402318c:	d8003415 	stw	zero,208(sp)
 4023190:	d9403115 	stw	r5,196(sp)
 4023194:	0005883a 	mov	r2,zero
 4023198:	003a2e06 	br	4021a54 <__flash_rwdata_start+0xffff1190>
 402319c:	0021883a 	mov	r16,zero
 40231a0:	003dee06 	br	402295c <__flash_rwdata_start+0xffff2098>
 40231a4:	01400034 	movhi	r5,0
 40231a8:	29402a84 	addi	r5,r5,170
 40231ac:	d9403615 	stw	r5,216(sp)
 40231b0:	003ad806 	br	4021d14 <__flash_rwdata_start+0xffff1450>
 40231b4:	b809883a 	mov	r4,r23
 40231b8:	b00b883a 	mov	r5,r22
 40231bc:	d9801e04 	addi	r6,sp,120
 40231c0:	40289c80 	call	40289c8 <__sprint_r>
 40231c4:	1039b41e 	bne	r2,zero,4021898 <__flash_rwdata_start+0xffff0fd4>
 40231c8:	d8802617 	ldw	r2,152(sp)
 40231cc:	d9403317 	ldw	r5,204(sp)
 40231d0:	d8c02017 	ldw	r3,128(sp)
 40231d4:	da000404 	addi	r8,sp,16
 40231d8:	2885c83a 	sub	r2,r5,r2
 40231dc:	003dde06 	br	4022958 <__flash_rwdata_start+0xffff2094>
 40231e0:	01400034 	movhi	r5,0
 40231e4:	29401904 	addi	r5,r5,100
 40231e8:	d9403115 	stw	r5,196(sp)
 40231ec:	003f2e06 	br	4022ea8 <__flash_rwdata_start+0xffff25e4>
 40231f0:	00800b44 	movi	r2,45
 40231f4:	d8802785 	stb	r2,158(sp)
 40231f8:	df002b15 	stw	fp,172(sp)
 40231fc:	d8003215 	stw	zero,200(sp)
 4023200:	df002d17 	ldw	fp,180(sp)
 4023204:	00800b44 	movi	r2,45
 4023208:	dc802d15 	stw	r18,180(sp)
 402320c:	003a0e06 	br	4021a48 <__flash_rwdata_start+0xffff1184>
 4023210:	d8c02617 	ldw	r3,152(sp)
 4023214:	00bfff44 	movi	r2,-3
 4023218:	18801b16 	blt	r3,r2,4023288 <___vfprintf_internal_r+0x1dc4>
 402321c:	48c01a16 	blt	r9,r3,4023288 <___vfprintf_internal_r+0x1dc4>
 4023220:	d8c03415 	stw	r3,208(sp)
 4023224:	040019c4 	movi	r16,103
 4023228:	003e8006 	br	4022c2c <__flash_rwdata_start+0xffff2368>
 402322c:	04c00b44 	movi	r19,45
 4023230:	dcc02785 	stb	r19,158(sp)
 4023234:	003af106 	br	4021dfc <__flash_rwdata_start+0xffff1538>
 4023238:	d8c02d17 	ldw	r3,180(sp)
 402323c:	d9002f17 	ldw	r4,188(sp)
 4023240:	18800017 	ldw	r2,0(r3)
 4023244:	18c00104 	addi	r3,r3,4
 4023248:	d8c02d15 	stw	r3,180(sp)
 402324c:	11000015 	stw	r4,0(r2)
 4023250:	0038d706 	br	40215b0 <__flash_rwdata_start+0xffff0cec>
 4023254:	01000034 	movhi	r4,0
 4023258:	21002684 	addi	r4,r4,154
 402325c:	d9002c15 	stw	r4,176(sp)
 4023260:	003c8e06 	br	402249c <__flash_rwdata_start+0xffff1bd8>
 4023264:	5005883a 	mov	r2,r10
 4023268:	003e6506 	br	4022c00 <__flash_rwdata_start+0xffff233c>
 402326c:	da402b15 	stw	r9,172(sp)
 4023270:	dcc02783 	ldbu	r19,158(sp)
 4023274:	4823883a 	mov	r17,r9
 4023278:	dc802d15 	stw	r18,180(sp)
 402327c:	d8003215 	stw	zero,200(sp)
 4023280:	d8003415 	stw	zero,208(sp)
 4023284:	0039ec06 	br	4021a38 <__flash_rwdata_start+0xffff1174>
 4023288:	843fff84 	addi	r16,r16,-2
 402328c:	1d7fffc4 	addi	r21,r3,-1
 4023290:	dd402615 	stw	r21,152(sp)
 4023294:	dc0022c5 	stb	r16,139(sp)
 4023298:	a8009616 	blt	r21,zero,40234f4 <___vfprintf_internal_r+0x2030>
 402329c:	00800ac4 	movi	r2,43
 40232a0:	d8802305 	stb	r2,140(sp)
 40232a4:	00800244 	movi	r2,9
 40232a8:	1540610e 	bge	r2,r21,4023430 <___vfprintf_internal_r+0x1f6c>
 40232ac:	dcc022c4 	addi	r19,sp,139
 40232b0:	dc002c15 	stw	r16,176(sp)
 40232b4:	4023883a 	mov	r17,r8
 40232b8:	9821883a 	mov	r16,r19
 40232bc:	a809883a 	mov	r4,r21
 40232c0:	01400284 	movi	r5,10
 40232c4:	40210a00 	call	40210a0 <__modsi3>
 40232c8:	10800c04 	addi	r2,r2,48
 40232cc:	843fffc4 	addi	r16,r16,-1
 40232d0:	a809883a 	mov	r4,r21
 40232d4:	01400284 	movi	r5,10
 40232d8:	80800005 	stb	r2,0(r16)
 40232dc:	402104c0 	call	402104c <__divsi3>
 40232e0:	01000244 	movi	r4,9
 40232e4:	102b883a 	mov	r21,r2
 40232e8:	20bff416 	blt	r4,r2,40232bc <__flash_rwdata_start+0xffff29f8>
 40232ec:	8811883a 	mov	r8,r17
 40232f0:	10800c04 	addi	r2,r2,48
 40232f4:	8023883a 	mov	r17,r16
 40232f8:	897fffc4 	addi	r5,r17,-1
 40232fc:	88bfffc5 	stb	r2,-1(r17)
 4023300:	dc002c17 	ldw	r16,176(sp)
 4023304:	2cc07f2e 	bgeu	r5,r19,4023504 <___vfprintf_internal_r+0x2040>
 4023308:	d9802384 	addi	r6,sp,142
 402330c:	344dc83a 	sub	r6,r6,r17
 4023310:	d9002344 	addi	r4,sp,141
 4023314:	998d883a 	add	r6,r19,r6
 4023318:	00000106 	br	4023320 <___vfprintf_internal_r+0x1e5c>
 402331c:	28800003 	ldbu	r2,0(r5)
 4023320:	20800005 	stb	r2,0(r4)
 4023324:	21000044 	addi	r4,r4,1
 4023328:	29400044 	addi	r5,r5,1
 402332c:	21bffb1e 	bne	r4,r6,402331c <__flash_rwdata_start+0xffff2a58>
 4023330:	d8802304 	addi	r2,sp,140
 4023334:	1445c83a 	sub	r2,r2,r17
 4023338:	d9402344 	addi	r5,sp,141
 402333c:	2885883a 	add	r2,r5,r2
 4023340:	14e7c83a 	sub	r19,r2,r19
 4023344:	d8803317 	ldw	r2,204(sp)
 4023348:	d8c03317 	ldw	r3,204(sp)
 402334c:	dcc03a15 	stw	r19,232(sp)
 4023350:	14e3883a 	add	r17,r2,r19
 4023354:	00800044 	movi	r2,1
 4023358:	10c04e0e 	bge	r2,r3,4023494 <___vfprintf_internal_r+0x1fd0>
 402335c:	8c400044 	addi	r17,r17,1
 4023360:	8839883a 	mov	fp,r17
 4023364:	88004916 	blt	r17,zero,402348c <___vfprintf_internal_r+0x1fc8>
 4023368:	d8003415 	stw	zero,208(sp)
 402336c:	003e3806 	br	4022c50 <__flash_rwdata_start+0xffff238c>
 4023370:	483de91e 	bne	r9,zero,4022b18 <__flash_rwdata_start+0xffff2254>
 4023374:	8813883a 	mov	r9,r17
 4023378:	003de706 	br	4022b18 <__flash_rwdata_start+0xffff2254>
 402337c:	b809883a 	mov	r4,r23
 4023380:	b00b883a 	mov	r5,r22
 4023384:	d9801e04 	addi	r6,sp,120
 4023388:	40289c80 	call	40289c8 <__sprint_r>
 402338c:	1039421e 	bne	r2,zero,4021898 <__flash_rwdata_start+0xffff0fd4>
 4023390:	dc002617 	ldw	r16,152(sp)
 4023394:	d8c02017 	ldw	r3,128(sp)
 4023398:	d8801f17 	ldw	r2,124(sp)
 402339c:	da000404 	addi	r8,sp,16
 40233a0:	003ea006 	br	4022e24 <__flash_rwdata_start+0xffff2560>
 40233a4:	02400184 	movi	r9,6
 40233a8:	003ddb06 	br	4022b18 <__flash_rwdata_start+0xffff2254>
 40233ac:	00c00b44 	movi	r3,45
 40233b0:	2460003c 	xorhi	r17,r4,32768
 40233b4:	d8c02b05 	stb	r3,172(sp)
 40233b8:	003ddd06 	br	4022b30 <__flash_rwdata_start+0xffff226c>
 40233bc:	d8c03417 	ldw	r3,208(sp)
 40233c0:	00c03d0e 	bge	zero,r3,40234b8 <___vfprintf_internal_r+0x1ff4>
 40233c4:	04400044 	movi	r17,1
 40233c8:	d9003317 	ldw	r4,204(sp)
 40233cc:	8923883a 	add	r17,r17,r4
 40233d0:	8839883a 	mov	fp,r17
 40233d4:	883e1e0e 	bge	r17,zero,4022c50 <__flash_rwdata_start+0xffff238c>
 40233d8:	0039883a 	mov	fp,zero
 40233dc:	003e1c06 	br	4022c50 <__flash_rwdata_start+0xffff238c>
 40233e0:	4d400044 	addi	r21,r9,1
 40233e4:	003dd906 	br	4022b4c <__flash_rwdata_start+0xffff2288>
 40233e8:	1839883a 	mov	fp,r3
 40233ec:	18004716 	blt	r3,zero,402350c <___vfprintf_internal_r+0x2048>
 40233f0:	dc403417 	ldw	r17,208(sp)
 40233f4:	003e1606 	br	4022c50 <__flash_rwdata_start+0xffff238c>
 40233f8:	00c0290e 	bge	zero,r3,40234a0 <___vfprintf_internal_r+0x1fdc>
 40233fc:	4800021e 	bne	r9,zero,4023408 <___vfprintf_internal_r+0x1f44>
 4023400:	e080004c 	andi	r2,fp,1
 4023404:	103ff826 	beq	r2,zero,40233e8 <__flash_rwdata_start+0xffff2b24>
 4023408:	d8c03417 	ldw	r3,208(sp)
 402340c:	4a400044 	addi	r9,r9,1
 4023410:	1a63883a 	add	r17,r3,r9
 4023414:	8839883a 	mov	fp,r17
 4023418:	883e0d0e 	bge	r17,zero,4022c50 <__flash_rwdata_start+0xffff238c>
 402341c:	003fee06 	br	40233d8 <__flash_rwdata_start+0xffff2b14>
 4023420:	d8802117 	ldw	r2,132(sp)
 4023424:	003df606 	br	4022c00 <__flash_rwdata_start+0xffff233c>
 4023428:	0005883a 	mov	r2,zero
 402342c:	003f5206 	br	4023178 <__flash_rwdata_start+0xffff28b4>
 4023430:	00800c04 	movi	r2,48
 4023434:	a8c00c04 	addi	r3,r21,48
 4023438:	d8802345 	stb	r2,141(sp)
 402343c:	d8c02385 	stb	r3,142(sp)
 4023440:	d88023c4 	addi	r2,sp,143
 4023444:	dcc022c4 	addi	r19,sp,139
 4023448:	003fbd06 	br	4023340 <__flash_rwdata_start+0xffff2a7c>
 402344c:	d9003717 	ldw	r4,220(sp)
 4023450:	880b883a 	mov	r5,r17
 4023454:	000d883a 	mov	r6,zero
 4023458:	000f883a 	mov	r7,zero
 402345c:	da003f15 	stw	r8,252(sp)
 4023460:	da403e15 	stw	r9,248(sp)
 4023464:	da803d15 	stw	r10,244(sp)
 4023468:	402c6400 	call	402c640 <__eqdf2>
 402346c:	da003f17 	ldw	r8,252(sp)
 4023470:	da403e17 	ldw	r9,248(sp)
 4023474:	da803d17 	ldw	r10,244(sp)
 4023478:	103f1526 	beq	r2,zero,40230d0 <__flash_rwdata_start+0xffff280c>
 402347c:	00800044 	movi	r2,1
 4023480:	1547c83a 	sub	r3,r2,r21
 4023484:	d8c02615 	stw	r3,152(sp)
 4023488:	003f1206 	br	40230d4 <__flash_rwdata_start+0xffff2810>
 402348c:	0039883a 	mov	fp,zero
 4023490:	003fb506 	br	4023368 <__flash_rwdata_start+0xffff2aa4>
 4023494:	e084703a 	and	r2,fp,r2
 4023498:	103fb126 	beq	r2,zero,4023360 <__flash_rwdata_start+0xffff2a9c>
 402349c:	003faf06 	br	402335c <__flash_rwdata_start+0xffff2a98>
 40234a0:	4800081e 	bne	r9,zero,40234c4 <___vfprintf_internal_r+0x2000>
 40234a4:	e080004c 	andi	r2,fp,1
 40234a8:	1000061e 	bne	r2,zero,40234c4 <___vfprintf_internal_r+0x2000>
 40234ac:	07000044 	movi	fp,1
 40234b0:	e023883a 	mov	r17,fp
 40234b4:	003de606 	br	4022c50 <__flash_rwdata_start+0xffff238c>
 40234b8:	04400084 	movi	r17,2
 40234bc:	88e3c83a 	sub	r17,r17,r3
 40234c0:	003fc106 	br	40233c8 <__flash_rwdata_start+0xffff2b04>
 40234c4:	4c400084 	addi	r17,r9,2
 40234c8:	8839883a 	mov	fp,r17
 40234cc:	883de00e 	bge	r17,zero,4022c50 <__flash_rwdata_start+0xffff238c>
 40234d0:	003fc106 	br	40233d8 <__flash_rwdata_start+0xffff2b14>
 40234d4:	d9402d17 	ldw	r5,180(sp)
 40234d8:	2a400017 	ldw	r9,0(r5)
 40234dc:	28c00104 	addi	r3,r5,4
 40234e0:	d8c02d15 	stw	r3,180(sp)
 40234e4:	483eb50e 	bge	r9,zero,4022fbc <__flash_rwdata_start+0xffff26f8>
 40234e8:	027fffc4 	movi	r9,-1
 40234ec:	e4000047 	ldb	r16,1(fp)
 40234f0:	00385a06 	br	402165c <__flash_rwdata_start+0xffff0d98>
 40234f4:	00800b44 	movi	r2,45
 40234f8:	056bc83a 	sub	r21,zero,r21
 40234fc:	d8802305 	stb	r2,140(sp)
 4023500:	003f6806 	br	40232a4 <__flash_rwdata_start+0xffff29e0>
 4023504:	d8802344 	addi	r2,sp,141
 4023508:	003f8d06 	br	4023340 <__flash_rwdata_start+0xffff2a7c>
 402350c:	0039883a 	mov	fp,zero
 4023510:	003fb706 	br	40233f0 <__flash_rwdata_start+0xffff2b2c>
 4023514:	d8c02617 	ldw	r3,152(sp)
 4023518:	003f5c06 	br	402328c <__flash_rwdata_start+0xffff29c8>

0402351c <__vfprintf_internal>:
 402351c:	2007883a 	mov	r3,r4
 4023520:	01000034 	movhi	r4,0
 4023524:	21078604 	addi	r4,r4,7704
 4023528:	21000017 	ldw	r4,0(r4)
 402352c:	2805883a 	mov	r2,r5
 4023530:	300f883a 	mov	r7,r6
 4023534:	180b883a 	mov	r5,r3
 4023538:	100d883a 	mov	r6,r2
 402353c:	40214c41 	jmpi	40214c4 <___vfprintf_internal_r>

04023540 <__sbprintf>:
 4023540:	2880030b 	ldhu	r2,12(r5)
 4023544:	2ac01917 	ldw	r11,100(r5)
 4023548:	2a80038b 	ldhu	r10,14(r5)
 402354c:	2a400717 	ldw	r9,28(r5)
 4023550:	2a000917 	ldw	r8,36(r5)
 4023554:	defee204 	addi	sp,sp,-1144
 4023558:	00c10004 	movi	r3,1024
 402355c:	dc011a15 	stw	r16,1128(sp)
 4023560:	10bfff4c 	andi	r2,r2,65533
 4023564:	2821883a 	mov	r16,r5
 4023568:	d8cb883a 	add	r5,sp,r3
 402356c:	dc811c15 	stw	r18,1136(sp)
 4023570:	dc411b15 	stw	r17,1132(sp)
 4023574:	dfc11d15 	stw	ra,1140(sp)
 4023578:	2025883a 	mov	r18,r4
 402357c:	d881030d 	sth	r2,1036(sp)
 4023580:	dac11915 	stw	r11,1124(sp)
 4023584:	da81038d 	sth	r10,1038(sp)
 4023588:	da410715 	stw	r9,1052(sp)
 402358c:	da010915 	stw	r8,1060(sp)
 4023590:	dec10015 	stw	sp,1024(sp)
 4023594:	dec10415 	stw	sp,1040(sp)
 4023598:	d8c10215 	stw	r3,1032(sp)
 402359c:	d8c10515 	stw	r3,1044(sp)
 40235a0:	d8010615 	stw	zero,1048(sp)
 40235a4:	40214c40 	call	40214c4 <___vfprintf_internal_r>
 40235a8:	1023883a 	mov	r17,r2
 40235ac:	10000416 	blt	r2,zero,40235c0 <__sbprintf+0x80>
 40235b0:	9009883a 	mov	r4,r18
 40235b4:	d9410004 	addi	r5,sp,1024
 40235b8:	40252a80 	call	40252a8 <_fflush_r>
 40235bc:	10000d1e 	bne	r2,zero,40235f4 <__sbprintf+0xb4>
 40235c0:	d8c1030b 	ldhu	r3,1036(sp)
 40235c4:	18c0100c 	andi	r3,r3,64
 40235c8:	18000326 	beq	r3,zero,40235d8 <__sbprintf+0x98>
 40235cc:	8080030b 	ldhu	r2,12(r16)
 40235d0:	10801014 	ori	r2,r2,64
 40235d4:	8080030d 	sth	r2,12(r16)
 40235d8:	8805883a 	mov	r2,r17
 40235dc:	dfc11d17 	ldw	ra,1140(sp)
 40235e0:	dc811c17 	ldw	r18,1136(sp)
 40235e4:	dc411b17 	ldw	r17,1132(sp)
 40235e8:	dc011a17 	ldw	r16,1128(sp)
 40235ec:	dec11e04 	addi	sp,sp,1144
 40235f0:	f800283a 	ret
 40235f4:	047fffc4 	movi	r17,-1
 40235f8:	003ff106 	br	40235c0 <__flash_rwdata_start+0xffff2cfc>

040235fc <__swsetup_r>:
 40235fc:	00800034 	movhi	r2,0
 4023600:	defffd04 	addi	sp,sp,-12
 4023604:	10878604 	addi	r2,r2,7704
 4023608:	dc400115 	stw	r17,4(sp)
 402360c:	2023883a 	mov	r17,r4
 4023610:	11000017 	ldw	r4,0(r2)
 4023614:	dc000015 	stw	r16,0(sp)
 4023618:	dfc00215 	stw	ra,8(sp)
 402361c:	2821883a 	mov	r16,r5
 4023620:	20000226 	beq	r4,zero,402362c <__swsetup_r+0x30>
 4023624:	20c00e17 	ldw	r3,56(r4)
 4023628:	18003126 	beq	r3,zero,40236f0 <__swsetup_r+0xf4>
 402362c:	8080030b 	ldhu	r2,12(r16)
 4023630:	10c0020c 	andi	r3,r2,8
 4023634:	100d883a 	mov	r6,r2
 4023638:	18000f26 	beq	r3,zero,4023678 <__swsetup_r+0x7c>
 402363c:	80c00417 	ldw	r3,16(r16)
 4023640:	18001526 	beq	r3,zero,4023698 <__swsetup_r+0x9c>
 4023644:	1100004c 	andi	r4,r2,1
 4023648:	20001c1e 	bne	r4,zero,40236bc <__swsetup_r+0xc0>
 402364c:	1080008c 	andi	r2,r2,2
 4023650:	1000291e 	bne	r2,zero,40236f8 <__swsetup_r+0xfc>
 4023654:	80800517 	ldw	r2,20(r16)
 4023658:	80800215 	stw	r2,8(r16)
 402365c:	18001c26 	beq	r3,zero,40236d0 <__swsetup_r+0xd4>
 4023660:	0005883a 	mov	r2,zero
 4023664:	dfc00217 	ldw	ra,8(sp)
 4023668:	dc400117 	ldw	r17,4(sp)
 402366c:	dc000017 	ldw	r16,0(sp)
 4023670:	dec00304 	addi	sp,sp,12
 4023674:	f800283a 	ret
 4023678:	3080040c 	andi	r2,r6,16
 402367c:	10002e26 	beq	r2,zero,4023738 <__swsetup_r+0x13c>
 4023680:	3080010c 	andi	r2,r6,4
 4023684:	10001e1e 	bne	r2,zero,4023700 <__swsetup_r+0x104>
 4023688:	80c00417 	ldw	r3,16(r16)
 402368c:	30800214 	ori	r2,r6,8
 4023690:	8080030d 	sth	r2,12(r16)
 4023694:	183feb1e 	bne	r3,zero,4023644 <__flash_rwdata_start+0xffff2d80>
 4023698:	1140a00c 	andi	r5,r2,640
 402369c:	01008004 	movi	r4,512
 40236a0:	293fe826 	beq	r5,r4,4023644 <__flash_rwdata_start+0xffff2d80>
 40236a4:	8809883a 	mov	r4,r17
 40236a8:	800b883a 	mov	r5,r16
 40236ac:	402622c0 	call	402622c <__smakebuf_r>
 40236b0:	8080030b 	ldhu	r2,12(r16)
 40236b4:	80c00417 	ldw	r3,16(r16)
 40236b8:	003fe206 	br	4023644 <__flash_rwdata_start+0xffff2d80>
 40236bc:	80800517 	ldw	r2,20(r16)
 40236c0:	80000215 	stw	zero,8(r16)
 40236c4:	0085c83a 	sub	r2,zero,r2
 40236c8:	80800615 	stw	r2,24(r16)
 40236cc:	183fe41e 	bne	r3,zero,4023660 <__flash_rwdata_start+0xffff2d9c>
 40236d0:	80c0030b 	ldhu	r3,12(r16)
 40236d4:	0005883a 	mov	r2,zero
 40236d8:	1900200c 	andi	r4,r3,128
 40236dc:	203fe126 	beq	r4,zero,4023664 <__flash_rwdata_start+0xffff2da0>
 40236e0:	18c01014 	ori	r3,r3,64
 40236e4:	80c0030d 	sth	r3,12(r16)
 40236e8:	00bfffc4 	movi	r2,-1
 40236ec:	003fdd06 	br	4023664 <__flash_rwdata_start+0xffff2da0>
 40236f0:	40256940 	call	4025694 <__sinit>
 40236f4:	003fcd06 	br	402362c <__flash_rwdata_start+0xffff2d68>
 40236f8:	0005883a 	mov	r2,zero
 40236fc:	003fd606 	br	4023658 <__flash_rwdata_start+0xffff2d94>
 4023700:	81400c17 	ldw	r5,48(r16)
 4023704:	28000626 	beq	r5,zero,4023720 <__swsetup_r+0x124>
 4023708:	80801004 	addi	r2,r16,64
 402370c:	28800326 	beq	r5,r2,402371c <__swsetup_r+0x120>
 4023710:	8809883a 	mov	r4,r17
 4023714:	40258080 	call	4025808 <_free_r>
 4023718:	8180030b 	ldhu	r6,12(r16)
 402371c:	80000c15 	stw	zero,48(r16)
 4023720:	80c00417 	ldw	r3,16(r16)
 4023724:	00bff6c4 	movi	r2,-37
 4023728:	118c703a 	and	r6,r2,r6
 402372c:	80000115 	stw	zero,4(r16)
 4023730:	80c00015 	stw	r3,0(r16)
 4023734:	003fd506 	br	402368c <__flash_rwdata_start+0xffff2dc8>
 4023738:	00800244 	movi	r2,9
 402373c:	88800015 	stw	r2,0(r17)
 4023740:	30801014 	ori	r2,r6,64
 4023744:	8080030d 	sth	r2,12(r16)
 4023748:	00bfffc4 	movi	r2,-1
 402374c:	003fc506 	br	4023664 <__flash_rwdata_start+0xffff2da0>

04023750 <quorem>:
 4023750:	defff204 	addi	sp,sp,-56
 4023754:	ddc00b15 	stw	r23,44(sp)
 4023758:	20800417 	ldw	r2,16(r4)
 402375c:	2dc00417 	ldw	r23,16(r5)
 4023760:	dfc00d15 	stw	ra,52(sp)
 4023764:	df000c15 	stw	fp,48(sp)
 4023768:	dd800a15 	stw	r22,40(sp)
 402376c:	dd400915 	stw	r21,36(sp)
 4023770:	dd000815 	stw	r20,32(sp)
 4023774:	dcc00715 	stw	r19,28(sp)
 4023778:	dc800615 	stw	r18,24(sp)
 402377c:	dc400515 	stw	r17,20(sp)
 4023780:	dc000415 	stw	r16,16(sp)
 4023784:	15c07a16 	blt	r2,r23,4023970 <quorem+0x220>
 4023788:	bdffffc4 	addi	r23,r23,-1
 402378c:	bde9883a 	add	r20,r23,r23
 4023790:	28c00504 	addi	r3,r5,20
 4023794:	a529883a 	add	r20,r20,r20
 4023798:	1d39883a 	add	fp,r3,r20
 402379c:	24c00504 	addi	r19,r4,20
 40237a0:	d9400215 	stw	r5,8(sp)
 40237a4:	9d29883a 	add	r20,r19,r20
 40237a8:	e1400017 	ldw	r5,0(fp)
 40237ac:	d9000015 	stw	r4,0(sp)
 40237b0:	a1000017 	ldw	r4,0(r20)
 40237b4:	29400044 	addi	r5,r5,1
 40237b8:	d8c00115 	stw	r3,4(sp)
 40237bc:	dd000315 	stw	r20,12(sp)
 40237c0:	40210fc0 	call	40210fc <__udivsi3>
 40237c4:	1025883a 	mov	r18,r2
 40237c8:	10003026 	beq	r2,zero,402388c <quorem+0x13c>
 40237cc:	dc400117 	ldw	r17,4(sp)
 40237d0:	9829883a 	mov	r20,r19
 40237d4:	002d883a 	mov	r22,zero
 40237d8:	0021883a 	mov	r16,zero
 40237dc:	8d400017 	ldw	r21,0(r17)
 40237e0:	900b883a 	mov	r5,r18
 40237e4:	8c400104 	addi	r17,r17,4
 40237e8:	a93fffcc 	andi	r4,r21,65535
 40237ec:	402110c0 	call	402110c <__mulsi3>
 40237f0:	a808d43a 	srli	r4,r21,16
 40237f4:	900b883a 	mov	r5,r18
 40237f8:	b0ad883a 	add	r22,r22,r2
 40237fc:	402110c0 	call	402110c <__mulsi3>
 4023800:	a1000017 	ldw	r4,0(r20)
 4023804:	b00cd43a 	srli	r6,r22,16
 4023808:	b0ffffcc 	andi	r3,r22,65535
 402380c:	217fffcc 	andi	r5,r4,65535
 4023810:	2c21883a 	add	r16,r5,r16
 4023814:	80c7c83a 	sub	r3,r16,r3
 4023818:	2008d43a 	srli	r4,r4,16
 402381c:	3085883a 	add	r2,r6,r2
 4023820:	1821d43a 	srai	r16,r3,16
 4023824:	117fffcc 	andi	r5,r2,65535
 4023828:	2149c83a 	sub	r4,r4,r5
 402382c:	2421883a 	add	r16,r4,r16
 4023830:	8008943a 	slli	r4,r16,16
 4023834:	18ffffcc 	andi	r3,r3,65535
 4023838:	102cd43a 	srli	r22,r2,16
 402383c:	20c8b03a 	or	r4,r4,r3
 4023840:	a1000015 	stw	r4,0(r20)
 4023844:	8021d43a 	srai	r16,r16,16
 4023848:	a5000104 	addi	r20,r20,4
 402384c:	e47fe32e 	bgeu	fp,r17,40237dc <__flash_rwdata_start+0xffff2f18>
 4023850:	d8c00317 	ldw	r3,12(sp)
 4023854:	18800017 	ldw	r2,0(r3)
 4023858:	10000c1e 	bne	r2,zero,402388c <quorem+0x13c>
 402385c:	18bfff04 	addi	r2,r3,-4
 4023860:	9880082e 	bgeu	r19,r2,4023884 <quorem+0x134>
 4023864:	18ffff17 	ldw	r3,-4(r3)
 4023868:	18000326 	beq	r3,zero,4023878 <quorem+0x128>
 402386c:	00000506 	br	4023884 <quorem+0x134>
 4023870:	10c00017 	ldw	r3,0(r2)
 4023874:	1800031e 	bne	r3,zero,4023884 <quorem+0x134>
 4023878:	10bfff04 	addi	r2,r2,-4
 402387c:	bdffffc4 	addi	r23,r23,-1
 4023880:	98bffb36 	bltu	r19,r2,4023870 <__flash_rwdata_start+0xffff2fac>
 4023884:	d8c00017 	ldw	r3,0(sp)
 4023888:	1dc00415 	stw	r23,16(r3)
 402388c:	d9000017 	ldw	r4,0(sp)
 4023890:	d9400217 	ldw	r5,8(sp)
 4023894:	40278840 	call	4027884 <__mcmp>
 4023898:	10002816 	blt	r2,zero,402393c <quorem+0x1ec>
 402389c:	dc400117 	ldw	r17,4(sp)
 40238a0:	94800044 	addi	r18,r18,1
 40238a4:	980d883a 	mov	r6,r19
 40238a8:	0007883a 	mov	r3,zero
 40238ac:	31000017 	ldw	r4,0(r6)
 40238b0:	89400017 	ldw	r5,0(r17)
 40238b4:	31800104 	addi	r6,r6,4
 40238b8:	20bfffcc 	andi	r2,r4,65535
 40238bc:	10c7883a 	add	r3,r2,r3
 40238c0:	28bfffcc 	andi	r2,r5,65535
 40238c4:	1885c83a 	sub	r2,r3,r2
 40238c8:	280ad43a 	srli	r5,r5,16
 40238cc:	2008d43a 	srli	r4,r4,16
 40238d0:	1007d43a 	srai	r3,r2,16
 40238d4:	10bfffcc 	andi	r2,r2,65535
 40238d8:	2149c83a 	sub	r4,r4,r5
 40238dc:	20c9883a 	add	r4,r4,r3
 40238e0:	200a943a 	slli	r5,r4,16
 40238e4:	8c400104 	addi	r17,r17,4
 40238e8:	2007d43a 	srai	r3,r4,16
 40238ec:	2884b03a 	or	r2,r5,r2
 40238f0:	30bfff15 	stw	r2,-4(r6)
 40238f4:	e47fed2e 	bgeu	fp,r17,40238ac <__flash_rwdata_start+0xffff2fe8>
 40238f8:	bdc5883a 	add	r2,r23,r23
 40238fc:	1085883a 	add	r2,r2,r2
 4023900:	9887883a 	add	r3,r19,r2
 4023904:	18800017 	ldw	r2,0(r3)
 4023908:	10000c1e 	bne	r2,zero,402393c <quorem+0x1ec>
 402390c:	18bfff04 	addi	r2,r3,-4
 4023910:	9880082e 	bgeu	r19,r2,4023934 <quorem+0x1e4>
 4023914:	18ffff17 	ldw	r3,-4(r3)
 4023918:	18000326 	beq	r3,zero,4023928 <quorem+0x1d8>
 402391c:	00000506 	br	4023934 <quorem+0x1e4>
 4023920:	10c00017 	ldw	r3,0(r2)
 4023924:	1800031e 	bne	r3,zero,4023934 <quorem+0x1e4>
 4023928:	10bfff04 	addi	r2,r2,-4
 402392c:	bdffffc4 	addi	r23,r23,-1
 4023930:	98bffb36 	bltu	r19,r2,4023920 <__flash_rwdata_start+0xffff305c>
 4023934:	d8c00017 	ldw	r3,0(sp)
 4023938:	1dc00415 	stw	r23,16(r3)
 402393c:	9005883a 	mov	r2,r18
 4023940:	dfc00d17 	ldw	ra,52(sp)
 4023944:	df000c17 	ldw	fp,48(sp)
 4023948:	ddc00b17 	ldw	r23,44(sp)
 402394c:	dd800a17 	ldw	r22,40(sp)
 4023950:	dd400917 	ldw	r21,36(sp)
 4023954:	dd000817 	ldw	r20,32(sp)
 4023958:	dcc00717 	ldw	r19,28(sp)
 402395c:	dc800617 	ldw	r18,24(sp)
 4023960:	dc400517 	ldw	r17,20(sp)
 4023964:	dc000417 	ldw	r16,16(sp)
 4023968:	dec00e04 	addi	sp,sp,56
 402396c:	f800283a 	ret
 4023970:	0005883a 	mov	r2,zero
 4023974:	003ff206 	br	4023940 <__flash_rwdata_start+0xffff307c>

04023978 <_dtoa_r>:
 4023978:	20801017 	ldw	r2,64(r4)
 402397c:	deffde04 	addi	sp,sp,-136
 4023980:	dd401d15 	stw	r21,116(sp)
 4023984:	dcc01b15 	stw	r19,108(sp)
 4023988:	dc801a15 	stw	r18,104(sp)
 402398c:	dc401915 	stw	r17,100(sp)
 4023990:	dc001815 	stw	r16,96(sp)
 4023994:	dfc02115 	stw	ra,132(sp)
 4023998:	df002015 	stw	fp,128(sp)
 402399c:	ddc01f15 	stw	r23,124(sp)
 40239a0:	dd801e15 	stw	r22,120(sp)
 40239a4:	dd001c15 	stw	r20,112(sp)
 40239a8:	d9c00315 	stw	r7,12(sp)
 40239ac:	2021883a 	mov	r16,r4
 40239b0:	302b883a 	mov	r21,r6
 40239b4:	2825883a 	mov	r18,r5
 40239b8:	dc402417 	ldw	r17,144(sp)
 40239bc:	3027883a 	mov	r19,r6
 40239c0:	10000826 	beq	r2,zero,40239e4 <_dtoa_r+0x6c>
 40239c4:	21801117 	ldw	r6,68(r4)
 40239c8:	00c00044 	movi	r3,1
 40239cc:	100b883a 	mov	r5,r2
 40239d0:	1986983a 	sll	r3,r3,r6
 40239d4:	11800115 	stw	r6,4(r2)
 40239d8:	10c00215 	stw	r3,8(r2)
 40239dc:	4026f9c0 	call	4026f9c <_Bfree>
 40239e0:	80001015 	stw	zero,64(r16)
 40239e4:	a8002d16 	blt	r21,zero,4023a9c <_dtoa_r+0x124>
 40239e8:	88000015 	stw	zero,0(r17)
 40239ec:	a8dffc2c 	andhi	r3,r21,32752
 40239f0:	009ffc34 	movhi	r2,32752
 40239f4:	18801b26 	beq	r3,r2,4023a64 <_dtoa_r+0xec>
 40239f8:	9009883a 	mov	r4,r18
 40239fc:	980b883a 	mov	r5,r19
 4023a00:	000d883a 	mov	r6,zero
 4023a04:	000f883a 	mov	r7,zero
 4023a08:	402c6400 	call	402c640 <__eqdf2>
 4023a0c:	10002a1e 	bne	r2,zero,4023ab8 <_dtoa_r+0x140>
 4023a10:	d8c02317 	ldw	r3,140(sp)
 4023a14:	d9002517 	ldw	r4,148(sp)
 4023a18:	00800044 	movi	r2,1
 4023a1c:	18800015 	stw	r2,0(r3)
 4023a20:	2001a226 	beq	r4,zero,40240ac <_dtoa_r+0x734>
 4023a24:	00800034 	movhi	r2,0
 4023a28:	10802644 	addi	r2,r2,153
 4023a2c:	20800015 	stw	r2,0(r4)
 4023a30:	10bfffc4 	addi	r2,r2,-1
 4023a34:	dfc02117 	ldw	ra,132(sp)
 4023a38:	df002017 	ldw	fp,128(sp)
 4023a3c:	ddc01f17 	ldw	r23,124(sp)
 4023a40:	dd801e17 	ldw	r22,120(sp)
 4023a44:	dd401d17 	ldw	r21,116(sp)
 4023a48:	dd001c17 	ldw	r20,112(sp)
 4023a4c:	dcc01b17 	ldw	r19,108(sp)
 4023a50:	dc801a17 	ldw	r18,104(sp)
 4023a54:	dc401917 	ldw	r17,100(sp)
 4023a58:	dc001817 	ldw	r16,96(sp)
 4023a5c:	dec02204 	addi	sp,sp,136
 4023a60:	f800283a 	ret
 4023a64:	d8c02317 	ldw	r3,140(sp)
 4023a68:	0089c3c4 	movi	r2,9999
 4023a6c:	18800015 	stw	r2,0(r3)
 4023a70:	90017c26 	beq	r18,zero,4024064 <_dtoa_r+0x6ec>
 4023a74:	00800034 	movhi	r2,0
 4023a78:	10803204 	addi	r2,r2,200
 4023a7c:	d9002517 	ldw	r4,148(sp)
 4023a80:	203fec26 	beq	r4,zero,4023a34 <__flash_rwdata_start+0xffff3170>
 4023a84:	10c000c7 	ldb	r3,3(r2)
 4023a88:	18017d1e 	bne	r3,zero,4024080 <_dtoa_r+0x708>
 4023a8c:	10c000c4 	addi	r3,r2,3
 4023a90:	d9802517 	ldw	r6,148(sp)
 4023a94:	30c00015 	stw	r3,0(r6)
 4023a98:	003fe606 	br	4023a34 <__flash_rwdata_start+0xffff3170>
 4023a9c:	04e00034 	movhi	r19,32768
 4023aa0:	9cffffc4 	addi	r19,r19,-1
 4023aa4:	00800044 	movi	r2,1
 4023aa8:	ace6703a 	and	r19,r21,r19
 4023aac:	88800015 	stw	r2,0(r17)
 4023ab0:	982b883a 	mov	r21,r19
 4023ab4:	003fcd06 	br	40239ec <__flash_rwdata_start+0xffff3128>
 4023ab8:	d8800204 	addi	r2,sp,8
 4023abc:	a822d53a 	srli	r17,r21,20
 4023ac0:	d8800015 	stw	r2,0(sp)
 4023ac4:	8009883a 	mov	r4,r16
 4023ac8:	900b883a 	mov	r5,r18
 4023acc:	980d883a 	mov	r6,r19
 4023ad0:	d9c00104 	addi	r7,sp,4
 4023ad4:	4027bf80 	call	4027bf8 <__d2b>
 4023ad8:	1039883a 	mov	fp,r2
 4023adc:	88016a1e 	bne	r17,zero,4024088 <_dtoa_r+0x710>
 4023ae0:	dd000217 	ldw	r20,8(sp)
 4023ae4:	dc400117 	ldw	r17,4(sp)
 4023ae8:	00befbc4 	movi	r2,-1041
 4023aec:	a463883a 	add	r17,r20,r17
 4023af0:	8882ea16 	blt	r17,r2,402469c <_dtoa_r+0xd24>
 4023af4:	00bf0384 	movi	r2,-1010
 4023af8:	1445c83a 	sub	r2,r2,r17
 4023afc:	89010484 	addi	r4,r17,1042
 4023b00:	a8aa983a 	sll	r21,r21,r2
 4023b04:	9108d83a 	srl	r4,r18,r4
 4023b08:	a908b03a 	or	r4,r21,r4
 4023b0c:	402db180 	call	402db18 <__floatunsidf>
 4023b10:	017f8434 	movhi	r5,65040
 4023b14:	01800044 	movi	r6,1
 4023b18:	1009883a 	mov	r4,r2
 4023b1c:	194b883a 	add	r5,r3,r5
 4023b20:	8c7fffc4 	addi	r17,r17,-1
 4023b24:	d9800f15 	stw	r6,60(sp)
 4023b28:	000d883a 	mov	r6,zero
 4023b2c:	01cffe34 	movhi	r7,16376
 4023b30:	402d0f00 	call	402d0f0 <__subdf3>
 4023b34:	0198dbf4 	movhi	r6,25455
 4023b38:	01cff4f4 	movhi	r7,16339
 4023b3c:	1009883a 	mov	r4,r2
 4023b40:	180b883a 	mov	r5,r3
 4023b44:	3190d844 	addi	r6,r6,17249
 4023b48:	39e1e9c4 	addi	r7,r7,-30809
 4023b4c:	402c8840 	call	402c884 <__muldf3>
 4023b50:	01a2d874 	movhi	r6,35681
 4023b54:	01cff1f4 	movhi	r7,16327
 4023b58:	180b883a 	mov	r5,r3
 4023b5c:	31b22cc4 	addi	r6,r6,-14157
 4023b60:	39e28a04 	addi	r7,r7,-30168
 4023b64:	1009883a 	mov	r4,r2
 4023b68:	402b4240 	call	402b424 <__adddf3>
 4023b6c:	8809883a 	mov	r4,r17
 4023b70:	102d883a 	mov	r22,r2
 4023b74:	182b883a 	mov	r21,r3
 4023b78:	402da480 	call	402da48 <__floatsidf>
 4023b7c:	019427f4 	movhi	r6,20639
 4023b80:	01cff4f4 	movhi	r7,16339
 4023b84:	1009883a 	mov	r4,r2
 4023b88:	180b883a 	mov	r5,r3
 4023b8c:	319e7ec4 	addi	r6,r6,31227
 4023b90:	39d104c4 	addi	r7,r7,17427
 4023b94:	402c8840 	call	402c884 <__muldf3>
 4023b98:	b009883a 	mov	r4,r22
 4023b9c:	a80b883a 	mov	r5,r21
 4023ba0:	100d883a 	mov	r6,r2
 4023ba4:	180f883a 	mov	r7,r3
 4023ba8:	402b4240 	call	402b424 <__adddf3>
 4023bac:	1009883a 	mov	r4,r2
 4023bb0:	180b883a 	mov	r5,r3
 4023bb4:	102d883a 	mov	r22,r2
 4023bb8:	182b883a 	mov	r21,r3
 4023bbc:	402d9c00 	call	402d9c0 <__fixdfsi>
 4023bc0:	b009883a 	mov	r4,r22
 4023bc4:	a80b883a 	mov	r5,r21
 4023bc8:	000d883a 	mov	r6,zero
 4023bcc:	000f883a 	mov	r7,zero
 4023bd0:	d8800515 	stw	r2,20(sp)
 4023bd4:	402c7a40 	call	402c7a4 <__ledf2>
 4023bd8:	10023116 	blt	r2,zero,40244a0 <_dtoa_r+0xb28>
 4023bdc:	d8c00517 	ldw	r3,20(sp)
 4023be0:	00800584 	movi	r2,22
 4023be4:	10c21f36 	bltu	r2,r3,4024464 <_dtoa_r+0xaec>
 4023be8:	180490fa 	slli	r2,r3,3
 4023bec:	00c00034 	movhi	r3,0
 4023bf0:	18c04e04 	addi	r3,r3,312
 4023bf4:	1885883a 	add	r2,r3,r2
 4023bf8:	11000017 	ldw	r4,0(r2)
 4023bfc:	11400117 	ldw	r5,4(r2)
 4023c00:	900d883a 	mov	r6,r18
 4023c04:	980f883a 	mov	r7,r19
 4023c08:	402c6c40 	call	402c6c4 <__gedf2>
 4023c0c:	0082a70e 	bge	zero,r2,40246ac <_dtoa_r+0xd34>
 4023c10:	d9000517 	ldw	r4,20(sp)
 4023c14:	d8000d15 	stw	zero,52(sp)
 4023c18:	213fffc4 	addi	r4,r4,-1
 4023c1c:	d9000515 	stw	r4,20(sp)
 4023c20:	a463c83a 	sub	r17,r20,r17
 4023c24:	8dbfffc4 	addi	r22,r17,-1
 4023c28:	b0021916 	blt	r22,zero,4024490 <_dtoa_r+0xb18>
 4023c2c:	d8000815 	stw	zero,32(sp)
 4023c30:	d8800517 	ldw	r2,20(sp)
 4023c34:	10020e16 	blt	r2,zero,4024470 <_dtoa_r+0xaf8>
 4023c38:	b0ad883a 	add	r22,r22,r2
 4023c3c:	d8800a15 	stw	r2,40(sp)
 4023c40:	d8000915 	stw	zero,36(sp)
 4023c44:	d8c00317 	ldw	r3,12(sp)
 4023c48:	00800244 	movi	r2,9
 4023c4c:	10c11a36 	bltu	r2,r3,40240b8 <_dtoa_r+0x740>
 4023c50:	00800144 	movi	r2,5
 4023c54:	10c4fc0e 	bge	r2,r3,4025048 <_dtoa_r+0x16d0>
 4023c58:	18ffff04 	addi	r3,r3,-4
 4023c5c:	d8c00315 	stw	r3,12(sp)
 4023c60:	0029883a 	mov	r20,zero
 4023c64:	d9800317 	ldw	r6,12(sp)
 4023c68:	008000c4 	movi	r2,3
 4023c6c:	3083bd26 	beq	r6,r2,4024b64 <_dtoa_r+0x11ec>
 4023c70:	1183670e 	bge	r2,r6,4024a10 <_dtoa_r+0x1098>
 4023c74:	d8c00317 	ldw	r3,12(sp)
 4023c78:	00800104 	movi	r2,4
 4023c7c:	1882e726 	beq	r3,r2,402481c <_dtoa_r+0xea4>
 4023c80:	00800144 	movi	r2,5
 4023c84:	1884f21e 	bne	r3,r2,4025050 <_dtoa_r+0x16d8>
 4023c88:	00800044 	movi	r2,1
 4023c8c:	d8800b15 	stw	r2,44(sp)
 4023c90:	d8c02217 	ldw	r3,136(sp)
 4023c94:	d9000517 	ldw	r4,20(sp)
 4023c98:	1907883a 	add	r3,r3,r4
 4023c9c:	19800044 	addi	r6,r3,1
 4023ca0:	d8c00c15 	stw	r3,48(sp)
 4023ca4:	d9800615 	stw	r6,24(sp)
 4023ca8:	0183c30e 	bge	zero,r6,4024bb8 <_dtoa_r+0x1240>
 4023cac:	d9800617 	ldw	r6,24(sp)
 4023cb0:	3023883a 	mov	r17,r6
 4023cb4:	80001115 	stw	zero,68(r16)
 4023cb8:	008005c4 	movi	r2,23
 4023cbc:	1184f62e 	bgeu	r2,r6,4025098 <_dtoa_r+0x1720>
 4023cc0:	00c00044 	movi	r3,1
 4023cc4:	00800104 	movi	r2,4
 4023cc8:	1085883a 	add	r2,r2,r2
 4023ccc:	11000504 	addi	r4,r2,20
 4023cd0:	180b883a 	mov	r5,r3
 4023cd4:	18c00044 	addi	r3,r3,1
 4023cd8:	313ffb2e 	bgeu	r6,r4,4023cc8 <__flash_rwdata_start+0xffff3404>
 4023cdc:	81401115 	stw	r5,68(r16)
 4023ce0:	8009883a 	mov	r4,r16
 4023ce4:	4026ef40 	call	4026ef4 <_Balloc>
 4023ce8:	d8800715 	stw	r2,28(sp)
 4023cec:	80801015 	stw	r2,64(r16)
 4023cf0:	00800384 	movi	r2,14
 4023cf4:	1440fd36 	bltu	r2,r17,40240ec <_dtoa_r+0x774>
 4023cf8:	a000fc26 	beq	r20,zero,40240ec <_dtoa_r+0x774>
 4023cfc:	d8800517 	ldw	r2,20(sp)
 4023d00:	0083b90e 	bge	zero,r2,4024be8 <_dtoa_r+0x1270>
 4023d04:	d8c00517 	ldw	r3,20(sp)
 4023d08:	108003cc 	andi	r2,r2,15
 4023d0c:	100490fa 	slli	r2,r2,3
 4023d10:	182fd13a 	srai	r23,r3,4
 4023d14:	00c00034 	movhi	r3,0
 4023d18:	18c04e04 	addi	r3,r3,312
 4023d1c:	1885883a 	add	r2,r3,r2
 4023d20:	b8c0040c 	andi	r3,r23,16
 4023d24:	12c00017 	ldw	r11,0(r2)
 4023d28:	12800117 	ldw	r10,4(r2)
 4023d2c:	18039726 	beq	r3,zero,4024b8c <_dtoa_r+0x1214>
 4023d30:	00800034 	movhi	r2,0
 4023d34:	10804404 	addi	r2,r2,272
 4023d38:	11800817 	ldw	r6,32(r2)
 4023d3c:	11c00917 	ldw	r7,36(r2)
 4023d40:	9009883a 	mov	r4,r18
 4023d44:	980b883a 	mov	r5,r19
 4023d48:	da801615 	stw	r10,88(sp)
 4023d4c:	dac01515 	stw	r11,84(sp)
 4023d50:	402bcc00 	call	402bcc0 <__divdf3>
 4023d54:	da801617 	ldw	r10,88(sp)
 4023d58:	dac01517 	ldw	r11,84(sp)
 4023d5c:	bdc003cc 	andi	r23,r23,15
 4023d60:	044000c4 	movi	r17,3
 4023d64:	d8800e15 	stw	r2,56(sp)
 4023d68:	182b883a 	mov	r21,r3
 4023d6c:	b8001126 	beq	r23,zero,4023db4 <_dtoa_r+0x43c>
 4023d70:	05000034 	movhi	r20,0
 4023d74:	a5004404 	addi	r20,r20,272
 4023d78:	5805883a 	mov	r2,r11
 4023d7c:	5007883a 	mov	r3,r10
 4023d80:	b980004c 	andi	r6,r23,1
 4023d84:	1009883a 	mov	r4,r2
 4023d88:	b82fd07a 	srai	r23,r23,1
 4023d8c:	180b883a 	mov	r5,r3
 4023d90:	30000426 	beq	r6,zero,4023da4 <_dtoa_r+0x42c>
 4023d94:	a1800017 	ldw	r6,0(r20)
 4023d98:	a1c00117 	ldw	r7,4(r20)
 4023d9c:	8c400044 	addi	r17,r17,1
 4023da0:	402c8840 	call	402c884 <__muldf3>
 4023da4:	a5000204 	addi	r20,r20,8
 4023da8:	b83ff51e 	bne	r23,zero,4023d80 <__flash_rwdata_start+0xffff34bc>
 4023dac:	1017883a 	mov	r11,r2
 4023db0:	1815883a 	mov	r10,r3
 4023db4:	d9000e17 	ldw	r4,56(sp)
 4023db8:	a80b883a 	mov	r5,r21
 4023dbc:	580d883a 	mov	r6,r11
 4023dc0:	500f883a 	mov	r7,r10
 4023dc4:	402bcc00 	call	402bcc0 <__divdf3>
 4023dc8:	1029883a 	mov	r20,r2
 4023dcc:	182b883a 	mov	r21,r3
 4023dd0:	d9800d17 	ldw	r6,52(sp)
 4023dd4:	30000626 	beq	r6,zero,4023df0 <_dtoa_r+0x478>
 4023dd8:	a009883a 	mov	r4,r20
 4023ddc:	a80b883a 	mov	r5,r21
 4023de0:	000d883a 	mov	r6,zero
 4023de4:	01cffc34 	movhi	r7,16368
 4023de8:	402c7a40 	call	402c7a4 <__ledf2>
 4023dec:	10043216 	blt	r2,zero,4024eb8 <_dtoa_r+0x1540>
 4023df0:	8809883a 	mov	r4,r17
 4023df4:	402da480 	call	402da48 <__floatsidf>
 4023df8:	1009883a 	mov	r4,r2
 4023dfc:	180b883a 	mov	r5,r3
 4023e00:	a00d883a 	mov	r6,r20
 4023e04:	a80f883a 	mov	r7,r21
 4023e08:	402c8840 	call	402c884 <__muldf3>
 4023e0c:	000d883a 	mov	r6,zero
 4023e10:	1009883a 	mov	r4,r2
 4023e14:	180b883a 	mov	r5,r3
 4023e18:	01d00734 	movhi	r7,16412
 4023e1c:	402b4240 	call	402b424 <__adddf3>
 4023e20:	1023883a 	mov	r17,r2
 4023e24:	d9800617 	ldw	r6,24(sp)
 4023e28:	00bf3034 	movhi	r2,64704
 4023e2c:	1885883a 	add	r2,r3,r2
 4023e30:	d8800e15 	stw	r2,56(sp)
 4023e34:	30032e26 	beq	r6,zero,4024af0 <_dtoa_r+0x1178>
 4023e38:	d8c00517 	ldw	r3,20(sp)
 4023e3c:	da800617 	ldw	r10,24(sp)
 4023e40:	d8c01215 	stw	r3,72(sp)
 4023e44:	d9000b17 	ldw	r4,44(sp)
 4023e48:	2003b026 	beq	r4,zero,4024d0c <_dtoa_r+0x1394>
 4023e4c:	50bfffc4 	addi	r2,r10,-1
 4023e50:	100490fa 	slli	r2,r2,3
 4023e54:	00c00034 	movhi	r3,0
 4023e58:	18c04e04 	addi	r3,r3,312
 4023e5c:	1885883a 	add	r2,r3,r2
 4023e60:	11800017 	ldw	r6,0(r2)
 4023e64:	11c00117 	ldw	r7,4(r2)
 4023e68:	d8800717 	ldw	r2,28(sp)
 4023e6c:	0009883a 	mov	r4,zero
 4023e70:	014ff834 	movhi	r5,16352
 4023e74:	da801615 	stw	r10,88(sp)
 4023e78:	15c00044 	addi	r23,r2,1
 4023e7c:	402bcc00 	call	402bcc0 <__divdf3>
 4023e80:	d9c00e17 	ldw	r7,56(sp)
 4023e84:	880d883a 	mov	r6,r17
 4023e88:	1009883a 	mov	r4,r2
 4023e8c:	180b883a 	mov	r5,r3
 4023e90:	402d0f00 	call	402d0f0 <__subdf3>
 4023e94:	a80b883a 	mov	r5,r21
 4023e98:	a009883a 	mov	r4,r20
 4023e9c:	d8c01015 	stw	r3,64(sp)
 4023ea0:	d8800e15 	stw	r2,56(sp)
 4023ea4:	402d9c00 	call	402d9c0 <__fixdfsi>
 4023ea8:	1009883a 	mov	r4,r2
 4023eac:	d8801715 	stw	r2,92(sp)
 4023eb0:	402da480 	call	402da48 <__floatsidf>
 4023eb4:	a009883a 	mov	r4,r20
 4023eb8:	a80b883a 	mov	r5,r21
 4023ebc:	100d883a 	mov	r6,r2
 4023ec0:	180f883a 	mov	r7,r3
 4023ec4:	402d0f00 	call	402d0f0 <__subdf3>
 4023ec8:	da001717 	ldw	r8,92(sp)
 4023ecc:	1829883a 	mov	r20,r3
 4023ed0:	d8c00717 	ldw	r3,28(sp)
 4023ed4:	d9000e17 	ldw	r4,56(sp)
 4023ed8:	d9401017 	ldw	r5,64(sp)
 4023edc:	42000c04 	addi	r8,r8,48
 4023ee0:	1023883a 	mov	r17,r2
 4023ee4:	1a000005 	stb	r8,0(r3)
 4023ee8:	880d883a 	mov	r6,r17
 4023eec:	a00f883a 	mov	r7,r20
 4023ef0:	402b883a 	mov	r21,r8
 4023ef4:	402c6c40 	call	402c6c4 <__gedf2>
 4023ef8:	00844516 	blt	zero,r2,4025010 <_dtoa_r+0x1698>
 4023efc:	0009883a 	mov	r4,zero
 4023f00:	014ffc34 	movhi	r5,16368
 4023f04:	880d883a 	mov	r6,r17
 4023f08:	a00f883a 	mov	r7,r20
 4023f0c:	402d0f00 	call	402d0f0 <__subdf3>
 4023f10:	d9000e17 	ldw	r4,56(sp)
 4023f14:	d9401017 	ldw	r5,64(sp)
 4023f18:	100d883a 	mov	r6,r2
 4023f1c:	180f883a 	mov	r7,r3
 4023f20:	402c6c40 	call	402c6c4 <__gedf2>
 4023f24:	da801617 	ldw	r10,88(sp)
 4023f28:	00843616 	blt	zero,r2,4025004 <_dtoa_r+0x168c>
 4023f2c:	00800044 	movi	r2,1
 4023f30:	12806e0e 	bge	r2,r10,40240ec <_dtoa_r+0x774>
 4023f34:	d9000717 	ldw	r4,28(sp)
 4023f38:	dd801315 	stw	r22,76(sp)
 4023f3c:	dc001115 	stw	r16,68(sp)
 4023f40:	2295883a 	add	r10,r4,r10
 4023f44:	dcc01415 	stw	r19,80(sp)
 4023f48:	502d883a 	mov	r22,r10
 4023f4c:	dcc01017 	ldw	r19,64(sp)
 4023f50:	b821883a 	mov	r16,r23
 4023f54:	dc801015 	stw	r18,64(sp)
 4023f58:	dc800e17 	ldw	r18,56(sp)
 4023f5c:	00000906 	br	4023f84 <_dtoa_r+0x60c>
 4023f60:	402d0f00 	call	402d0f0 <__subdf3>
 4023f64:	1009883a 	mov	r4,r2
 4023f68:	180b883a 	mov	r5,r3
 4023f6c:	900d883a 	mov	r6,r18
 4023f70:	980f883a 	mov	r7,r19
 4023f74:	402c7a40 	call	402c7a4 <__ledf2>
 4023f78:	10040e16 	blt	r2,zero,4024fb4 <_dtoa_r+0x163c>
 4023f7c:	b821883a 	mov	r16,r23
 4023f80:	bd841026 	beq	r23,r22,4024fc4 <_dtoa_r+0x164c>
 4023f84:	9009883a 	mov	r4,r18
 4023f88:	980b883a 	mov	r5,r19
 4023f8c:	000d883a 	mov	r6,zero
 4023f90:	01d00934 	movhi	r7,16420
 4023f94:	402c8840 	call	402c884 <__muldf3>
 4023f98:	000d883a 	mov	r6,zero
 4023f9c:	01d00934 	movhi	r7,16420
 4023fa0:	8809883a 	mov	r4,r17
 4023fa4:	a00b883a 	mov	r5,r20
 4023fa8:	1025883a 	mov	r18,r2
 4023fac:	1827883a 	mov	r19,r3
 4023fb0:	402c8840 	call	402c884 <__muldf3>
 4023fb4:	180b883a 	mov	r5,r3
 4023fb8:	1009883a 	mov	r4,r2
 4023fbc:	1823883a 	mov	r17,r3
 4023fc0:	1029883a 	mov	r20,r2
 4023fc4:	402d9c00 	call	402d9c0 <__fixdfsi>
 4023fc8:	1009883a 	mov	r4,r2
 4023fcc:	102b883a 	mov	r21,r2
 4023fd0:	402da480 	call	402da48 <__floatsidf>
 4023fd4:	a009883a 	mov	r4,r20
 4023fd8:	880b883a 	mov	r5,r17
 4023fdc:	100d883a 	mov	r6,r2
 4023fe0:	180f883a 	mov	r7,r3
 4023fe4:	402d0f00 	call	402d0f0 <__subdf3>
 4023fe8:	ad400c04 	addi	r21,r21,48
 4023fec:	1009883a 	mov	r4,r2
 4023ff0:	180b883a 	mov	r5,r3
 4023ff4:	900d883a 	mov	r6,r18
 4023ff8:	980f883a 	mov	r7,r19
 4023ffc:	85400005 	stb	r21,0(r16)
 4024000:	1023883a 	mov	r17,r2
 4024004:	1829883a 	mov	r20,r3
 4024008:	402c7a40 	call	402c7a4 <__ledf2>
 402400c:	bdc00044 	addi	r23,r23,1
 4024010:	0009883a 	mov	r4,zero
 4024014:	014ffc34 	movhi	r5,16368
 4024018:	880d883a 	mov	r6,r17
 402401c:	a00f883a 	mov	r7,r20
 4024020:	103fcf0e 	bge	r2,zero,4023f60 <__flash_rwdata_start+0xffff369c>
 4024024:	d9801217 	ldw	r6,72(sp)
 4024028:	dc001117 	ldw	r16,68(sp)
 402402c:	d9800515 	stw	r6,20(sp)
 4024030:	8009883a 	mov	r4,r16
 4024034:	e00b883a 	mov	r5,fp
 4024038:	4026f9c0 	call	4026f9c <_Bfree>
 402403c:	d8c00517 	ldw	r3,20(sp)
 4024040:	d9002317 	ldw	r4,140(sp)
 4024044:	d9802517 	ldw	r6,148(sp)
 4024048:	b8000005 	stb	zero,0(r23)
 402404c:	18800044 	addi	r2,r3,1
 4024050:	20800015 	stw	r2,0(r4)
 4024054:	30027226 	beq	r6,zero,4024a20 <_dtoa_r+0x10a8>
 4024058:	35c00015 	stw	r23,0(r6)
 402405c:	d8800717 	ldw	r2,28(sp)
 4024060:	003e7406 	br	4023a34 <__flash_rwdata_start+0xffff3170>
 4024064:	00800434 	movhi	r2,16
 4024068:	10bfffc4 	addi	r2,r2,-1
 402406c:	a8aa703a 	and	r21,r21,r2
 4024070:	a83e801e 	bne	r21,zero,4023a74 <__flash_rwdata_start+0xffff31b0>
 4024074:	00800034 	movhi	r2,0
 4024078:	10802f04 	addi	r2,r2,188
 402407c:	003e7f06 	br	4023a7c <__flash_rwdata_start+0xffff31b8>
 4024080:	10c00204 	addi	r3,r2,8
 4024084:	003e8206 	br	4023a90 <__flash_rwdata_start+0xffff31cc>
 4024088:	01400434 	movhi	r5,16
 402408c:	297fffc4 	addi	r5,r5,-1
 4024090:	994a703a 	and	r5,r19,r5
 4024094:	9009883a 	mov	r4,r18
 4024098:	8c7f0044 	addi	r17,r17,-1023
 402409c:	294ffc34 	orhi	r5,r5,16368
 40240a0:	dd000217 	ldw	r20,8(sp)
 40240a4:	d8000f15 	stw	zero,60(sp)
 40240a8:	003e9f06 	br	4023b28 <__flash_rwdata_start+0xffff3264>
 40240ac:	00800034 	movhi	r2,0
 40240b0:	10802604 	addi	r2,r2,152
 40240b4:	003e5f06 	br	4023a34 <__flash_rwdata_start+0xffff3170>
 40240b8:	80001115 	stw	zero,68(r16)
 40240bc:	8009883a 	mov	r4,r16
 40240c0:	000b883a 	mov	r5,zero
 40240c4:	4026ef40 	call	4026ef4 <_Balloc>
 40240c8:	01bfffc4 	movi	r6,-1
 40240cc:	d8800715 	stw	r2,28(sp)
 40240d0:	80801015 	stw	r2,64(r16)
 40240d4:	00800044 	movi	r2,1
 40240d8:	d9800c15 	stw	r6,48(sp)
 40240dc:	d8800b15 	stw	r2,44(sp)
 40240e0:	d9800615 	stw	r6,24(sp)
 40240e4:	d8002215 	stw	zero,136(sp)
 40240e8:	d8000315 	stw	zero,12(sp)
 40240ec:	d8800117 	ldw	r2,4(sp)
 40240f0:	10008e16 	blt	r2,zero,402432c <_dtoa_r+0x9b4>
 40240f4:	d9000517 	ldw	r4,20(sp)
 40240f8:	00c00384 	movi	r3,14
 40240fc:	19008b16 	blt	r3,r4,402432c <_dtoa_r+0x9b4>
 4024100:	200490fa 	slli	r2,r4,3
 4024104:	00c00034 	movhi	r3,0
 4024108:	d9802217 	ldw	r6,136(sp)
 402410c:	18c04e04 	addi	r3,r3,312
 4024110:	1885883a 	add	r2,r3,r2
 4024114:	14400017 	ldw	r17,0(r2)
 4024118:	15000117 	ldw	r20,4(r2)
 402411c:	3001c716 	blt	r6,zero,402483c <_dtoa_r+0xec4>
 4024120:	880d883a 	mov	r6,r17
 4024124:	a00f883a 	mov	r7,r20
 4024128:	9009883a 	mov	r4,r18
 402412c:	980b883a 	mov	r5,r19
 4024130:	402bcc00 	call	402bcc0 <__divdf3>
 4024134:	180b883a 	mov	r5,r3
 4024138:	1009883a 	mov	r4,r2
 402413c:	402d9c00 	call	402d9c0 <__fixdfsi>
 4024140:	1009883a 	mov	r4,r2
 4024144:	102d883a 	mov	r22,r2
 4024148:	402da480 	call	402da48 <__floatsidf>
 402414c:	1009883a 	mov	r4,r2
 4024150:	180b883a 	mov	r5,r3
 4024154:	880d883a 	mov	r6,r17
 4024158:	a00f883a 	mov	r7,r20
 402415c:	402c8840 	call	402c884 <__muldf3>
 4024160:	9009883a 	mov	r4,r18
 4024164:	980b883a 	mov	r5,r19
 4024168:	100d883a 	mov	r6,r2
 402416c:	180f883a 	mov	r7,r3
 4024170:	402d0f00 	call	402d0f0 <__subdf3>
 4024174:	d9000717 	ldw	r4,28(sp)
 4024178:	d9800617 	ldw	r6,24(sp)
 402417c:	180b883a 	mov	r5,r3
 4024180:	b0c00c04 	addi	r3,r22,48
 4024184:	20c00005 	stb	r3,0(r4)
 4024188:	25c00044 	addi	r23,r4,1
 402418c:	01000044 	movi	r4,1
 4024190:	1011883a 	mov	r8,r2
 4024194:	2807883a 	mov	r3,r5
 4024198:	31003d26 	beq	r6,r4,4024290 <_dtoa_r+0x918>
 402419c:	000d883a 	mov	r6,zero
 40241a0:	01d00934 	movhi	r7,16420
 40241a4:	1009883a 	mov	r4,r2
 40241a8:	402c8840 	call	402c884 <__muldf3>
 40241ac:	1009883a 	mov	r4,r2
 40241b0:	180b883a 	mov	r5,r3
 40241b4:	000d883a 	mov	r6,zero
 40241b8:	000f883a 	mov	r7,zero
 40241bc:	1027883a 	mov	r19,r2
 40241c0:	182b883a 	mov	r21,r3
 40241c4:	402c6400 	call	402c640 <__eqdf2>
 40241c8:	103f9926 	beq	r2,zero,4024030 <__flash_rwdata_start+0xffff376c>
 40241cc:	d8c00617 	ldw	r3,24(sp)
 40241d0:	d9000717 	ldw	r4,28(sp)
 40241d4:	b825883a 	mov	r18,r23
 40241d8:	18bfffc4 	addi	r2,r3,-1
 40241dc:	20ad883a 	add	r22,r4,r2
 40241e0:	dc000315 	stw	r16,12(sp)
 40241e4:	00000a06 	br	4024210 <_dtoa_r+0x898>
 40241e8:	402c8840 	call	402c884 <__muldf3>
 40241ec:	1009883a 	mov	r4,r2
 40241f0:	180b883a 	mov	r5,r3
 40241f4:	000d883a 	mov	r6,zero
 40241f8:	000f883a 	mov	r7,zero
 40241fc:	1027883a 	mov	r19,r2
 4024200:	182b883a 	mov	r21,r3
 4024204:	b825883a 	mov	r18,r23
 4024208:	402c6400 	call	402c640 <__eqdf2>
 402420c:	10022626 	beq	r2,zero,4024aa8 <_dtoa_r+0x1130>
 4024210:	880d883a 	mov	r6,r17
 4024214:	a00f883a 	mov	r7,r20
 4024218:	9809883a 	mov	r4,r19
 402421c:	a80b883a 	mov	r5,r21
 4024220:	402bcc00 	call	402bcc0 <__divdf3>
 4024224:	180b883a 	mov	r5,r3
 4024228:	1009883a 	mov	r4,r2
 402422c:	402d9c00 	call	402d9c0 <__fixdfsi>
 4024230:	1009883a 	mov	r4,r2
 4024234:	1021883a 	mov	r16,r2
 4024238:	402da480 	call	402da48 <__floatsidf>
 402423c:	1009883a 	mov	r4,r2
 4024240:	180b883a 	mov	r5,r3
 4024244:	880d883a 	mov	r6,r17
 4024248:	a00f883a 	mov	r7,r20
 402424c:	402c8840 	call	402c884 <__muldf3>
 4024250:	9809883a 	mov	r4,r19
 4024254:	a80b883a 	mov	r5,r21
 4024258:	100d883a 	mov	r6,r2
 402425c:	180f883a 	mov	r7,r3
 4024260:	402d0f00 	call	402d0f0 <__subdf3>
 4024264:	82000c04 	addi	r8,r16,48
 4024268:	92000005 	stb	r8,0(r18)
 402426c:	1009883a 	mov	r4,r2
 4024270:	180b883a 	mov	r5,r3
 4024274:	000d883a 	mov	r6,zero
 4024278:	01d00934 	movhi	r7,16420
 402427c:	1011883a 	mov	r8,r2
 4024280:	bdc00044 	addi	r23,r23,1
 4024284:	95bfd81e 	bne	r18,r22,40241e8 <__flash_rwdata_start+0xffff3924>
 4024288:	802d883a 	mov	r22,r16
 402428c:	dc000317 	ldw	r16,12(sp)
 4024290:	4009883a 	mov	r4,r8
 4024294:	180b883a 	mov	r5,r3
 4024298:	400d883a 	mov	r6,r8
 402429c:	180f883a 	mov	r7,r3
 40242a0:	402b4240 	call	402b424 <__adddf3>
 40242a4:	8809883a 	mov	r4,r17
 40242a8:	a00b883a 	mov	r5,r20
 40242ac:	100d883a 	mov	r6,r2
 40242b0:	180f883a 	mov	r7,r3
 40242b4:	1027883a 	mov	r19,r2
 40242b8:	1825883a 	mov	r18,r3
 40242bc:	402c7a40 	call	402c7a4 <__ledf2>
 40242c0:	10000816 	blt	r2,zero,40242e4 <_dtoa_r+0x96c>
 40242c4:	8809883a 	mov	r4,r17
 40242c8:	a00b883a 	mov	r5,r20
 40242cc:	980d883a 	mov	r6,r19
 40242d0:	900f883a 	mov	r7,r18
 40242d4:	402c6400 	call	402c640 <__eqdf2>
 40242d8:	103f551e 	bne	r2,zero,4024030 <__flash_rwdata_start+0xffff376c>
 40242dc:	b580004c 	andi	r22,r22,1
 40242e0:	b03f5326 	beq	r22,zero,4024030 <__flash_rwdata_start+0xffff376c>
 40242e4:	bd7fffc3 	ldbu	r21,-1(r23)
 40242e8:	b8bfffc4 	addi	r2,r23,-1
 40242ec:	1007883a 	mov	r3,r2
 40242f0:	01400e44 	movi	r5,57
 40242f4:	d9800717 	ldw	r6,28(sp)
 40242f8:	00000506 	br	4024310 <_dtoa_r+0x998>
 40242fc:	18ffffc4 	addi	r3,r3,-1
 4024300:	30825e26 	beq	r6,r2,4024c7c <_dtoa_r+0x1304>
 4024304:	1d400003 	ldbu	r21,0(r3)
 4024308:	102f883a 	mov	r23,r2
 402430c:	10bfffc4 	addi	r2,r2,-1
 4024310:	a9003fcc 	andi	r4,r21,255
 4024314:	2100201c 	xori	r4,r4,128
 4024318:	213fe004 	addi	r4,r4,-128
 402431c:	217ff726 	beq	r4,r5,40242fc <__flash_rwdata_start+0xffff3a38>
 4024320:	aa000044 	addi	r8,r21,1
 4024324:	12000005 	stb	r8,0(r2)
 4024328:	003f4106 	br	4024030 <__flash_rwdata_start+0xffff376c>
 402432c:	d8c00b17 	ldw	r3,44(sp)
 4024330:	18006726 	beq	r3,zero,40244d0 <_dtoa_r+0xb58>
 4024334:	d9000317 	ldw	r4,12(sp)
 4024338:	00c00044 	movi	r3,1
 402433c:	19016a0e 	bge	r3,r4,40248e8 <_dtoa_r+0xf70>
 4024340:	d8800617 	ldw	r2,24(sp)
 4024344:	d8c00917 	ldw	r3,36(sp)
 4024348:	157fffc4 	addi	r21,r2,-1
 402434c:	1d420716 	blt	r3,r21,4024b6c <_dtoa_r+0x11f4>
 4024350:	1d6bc83a 	sub	r21,r3,r21
 4024354:	d8800617 	ldw	r2,24(sp)
 4024358:	1002c716 	blt	r2,zero,4024e78 <_dtoa_r+0x1500>
 402435c:	dd000817 	ldw	r20,32(sp)
 4024360:	d8800617 	ldw	r2,24(sp)
 4024364:	d9800817 	ldw	r6,32(sp)
 4024368:	8009883a 	mov	r4,r16
 402436c:	01400044 	movi	r5,1
 4024370:	308d883a 	add	r6,r6,r2
 4024374:	d9800815 	stw	r6,32(sp)
 4024378:	b0ad883a 	add	r22,r22,r2
 402437c:	40273280 	call	4027328 <__i2b>
 4024380:	1023883a 	mov	r17,r2
 4024384:	a0000826 	beq	r20,zero,40243a8 <_dtoa_r+0xa30>
 4024388:	0580070e 	bge	zero,r22,40243a8 <_dtoa_r+0xa30>
 402438c:	b005883a 	mov	r2,r22
 4024390:	a5812016 	blt	r20,r22,4024814 <_dtoa_r+0xe9c>
 4024394:	d8c00817 	ldw	r3,32(sp)
 4024398:	a0a9c83a 	sub	r20,r20,r2
 402439c:	b0adc83a 	sub	r22,r22,r2
 40243a0:	1887c83a 	sub	r3,r3,r2
 40243a4:	d8c00815 	stw	r3,32(sp)
 40243a8:	d9000917 	ldw	r4,36(sp)
 40243ac:	0100140e 	bge	zero,r4,4024400 <_dtoa_r+0xa88>
 40243b0:	d9800b17 	ldw	r6,44(sp)
 40243b4:	3001e526 	beq	r6,zero,4024b4c <_dtoa_r+0x11d4>
 40243b8:	05400e0e 	bge	zero,r21,40243f4 <_dtoa_r+0xa7c>
 40243bc:	880b883a 	mov	r5,r17
 40243c0:	8009883a 	mov	r4,r16
 40243c4:	a80d883a 	mov	r6,r21
 40243c8:	40275f40 	call	40275f4 <__pow5mult>
 40243cc:	e00d883a 	mov	r6,fp
 40243d0:	8009883a 	mov	r4,r16
 40243d4:	100b883a 	mov	r5,r2
 40243d8:	1023883a 	mov	r17,r2
 40243dc:	40273640 	call	4027364 <__multiply>
 40243e0:	102f883a 	mov	r23,r2
 40243e4:	e00b883a 	mov	r5,fp
 40243e8:	8009883a 	mov	r4,r16
 40243ec:	4026f9c0 	call	4026f9c <_Bfree>
 40243f0:	b839883a 	mov	fp,r23
 40243f4:	d8800917 	ldw	r2,36(sp)
 40243f8:	154dc83a 	sub	r6,r2,r21
 40243fc:	3001281e 	bne	r6,zero,40248a0 <_dtoa_r+0xf28>
 4024400:	05c00044 	movi	r23,1
 4024404:	8009883a 	mov	r4,r16
 4024408:	b80b883a 	mov	r5,r23
 402440c:	40273280 	call	4027328 <__i2b>
 4024410:	d8c00a17 	ldw	r3,40(sp)
 4024414:	102b883a 	mov	r21,r2
 4024418:	00c0310e 	bge	zero,r3,40244e0 <_dtoa_r+0xb68>
 402441c:	8009883a 	mov	r4,r16
 4024420:	100b883a 	mov	r5,r2
 4024424:	180d883a 	mov	r6,r3
 4024428:	40275f40 	call	40275f4 <__pow5mult>
 402442c:	d9000317 	ldw	r4,12(sp)
 4024430:	102b883a 	mov	r21,r2
 4024434:	b9011f0e 	bge	r23,r4,40248b4 <_dtoa_r+0xf3c>
 4024438:	0027883a 	mov	r19,zero
 402443c:	a8800417 	ldw	r2,16(r21)
 4024440:	10800104 	addi	r2,r2,4
 4024444:	1085883a 	add	r2,r2,r2
 4024448:	1085883a 	add	r2,r2,r2
 402444c:	a885883a 	add	r2,r21,r2
 4024450:	11000017 	ldw	r4,0(r2)
 4024454:	40272100 	call	4027210 <__hi0bits>
 4024458:	00c00804 	movi	r3,32
 402445c:	1885c83a 	sub	r2,r3,r2
 4024460:	00002506 	br	40244f8 <_dtoa_r+0xb80>
 4024464:	01800044 	movi	r6,1
 4024468:	d9800d15 	stw	r6,52(sp)
 402446c:	003dec06 	br	4023c20 <__flash_rwdata_start+0xffff335c>
 4024470:	d8c00817 	ldw	r3,32(sp)
 4024474:	d9000517 	ldw	r4,20(sp)
 4024478:	d8000a15 	stw	zero,40(sp)
 402447c:	1907c83a 	sub	r3,r3,r4
 4024480:	010dc83a 	sub	r6,zero,r4
 4024484:	d8c00815 	stw	r3,32(sp)
 4024488:	d9800915 	stw	r6,36(sp)
 402448c:	003ded06 	br	4023c44 <__flash_rwdata_start+0xffff3380>
 4024490:	05adc83a 	sub	r22,zero,r22
 4024494:	dd800815 	stw	r22,32(sp)
 4024498:	002d883a 	mov	r22,zero
 402449c:	003de406 	br	4023c30 <__flash_rwdata_start+0xffff336c>
 40244a0:	d9000517 	ldw	r4,20(sp)
 40244a4:	402da480 	call	402da48 <__floatsidf>
 40244a8:	1009883a 	mov	r4,r2
 40244ac:	180b883a 	mov	r5,r3
 40244b0:	b00d883a 	mov	r6,r22
 40244b4:	a80f883a 	mov	r7,r21
 40244b8:	402c6400 	call	402c640 <__eqdf2>
 40244bc:	103dc726 	beq	r2,zero,4023bdc <__flash_rwdata_start+0xffff3318>
 40244c0:	d8800517 	ldw	r2,20(sp)
 40244c4:	10bfffc4 	addi	r2,r2,-1
 40244c8:	d8800515 	stw	r2,20(sp)
 40244cc:	003dc306 	br	4023bdc <__flash_rwdata_start+0xffff3318>
 40244d0:	dd400917 	ldw	r21,36(sp)
 40244d4:	dd000817 	ldw	r20,32(sp)
 40244d8:	0023883a 	mov	r17,zero
 40244dc:	003fa906 	br	4024384 <__flash_rwdata_start+0xffff3ac0>
 40244e0:	d9800317 	ldw	r6,12(sp)
 40244e4:	b981670e 	bge	r23,r6,4024a84 <_dtoa_r+0x110c>
 40244e8:	0027883a 	mov	r19,zero
 40244ec:	d8c00a17 	ldw	r3,40(sp)
 40244f0:	183fd21e 	bne	r3,zero,402443c <__flash_rwdata_start+0xffff3b78>
 40244f4:	00800044 	movi	r2,1
 40244f8:	1585883a 	add	r2,r2,r22
 40244fc:	108007cc 	andi	r2,r2,31
 4024500:	10005f26 	beq	r2,zero,4024680 <_dtoa_r+0xd08>
 4024504:	00c00804 	movi	r3,32
 4024508:	1887c83a 	sub	r3,r3,r2
 402450c:	01000104 	movi	r4,4
 4024510:	20c2dd0e 	bge	r4,r3,4025088 <_dtoa_r+0x1710>
 4024514:	d9000817 	ldw	r4,32(sp)
 4024518:	00c00704 	movi	r3,28
 402451c:	1885c83a 	sub	r2,r3,r2
 4024520:	2089883a 	add	r4,r4,r2
 4024524:	d9000815 	stw	r4,32(sp)
 4024528:	a0a9883a 	add	r20,r20,r2
 402452c:	b0ad883a 	add	r22,r22,r2
 4024530:	d8800817 	ldw	r2,32(sp)
 4024534:	0080050e 	bge	zero,r2,402454c <_dtoa_r+0xbd4>
 4024538:	e00b883a 	mov	r5,fp
 402453c:	8009883a 	mov	r4,r16
 4024540:	100d883a 	mov	r6,r2
 4024544:	40277340 	call	4027734 <__lshift>
 4024548:	1039883a 	mov	fp,r2
 402454c:	0580050e 	bge	zero,r22,4024564 <_dtoa_r+0xbec>
 4024550:	a80b883a 	mov	r5,r21
 4024554:	8009883a 	mov	r4,r16
 4024558:	b00d883a 	mov	r6,r22
 402455c:	40277340 	call	4027734 <__lshift>
 4024560:	102b883a 	mov	r21,r2
 4024564:	d8c00d17 	ldw	r3,52(sp)
 4024568:	1801161e 	bne	r3,zero,40249c4 <_dtoa_r+0x104c>
 402456c:	d8c00617 	ldw	r3,24(sp)
 4024570:	00c12d0e 	bge	zero,r3,4024a28 <_dtoa_r+0x10b0>
 4024574:	d8c00b17 	ldw	r3,44(sp)
 4024578:	1800571e 	bne	r3,zero,40246d8 <_dtoa_r+0xd60>
 402457c:	dc800717 	ldw	r18,28(sp)
 4024580:	dcc00617 	ldw	r19,24(sp)
 4024584:	9029883a 	mov	r20,r18
 4024588:	00000206 	br	4024594 <_dtoa_r+0xc1c>
 402458c:	4026fc40 	call	4026fc4 <__multadd>
 4024590:	1039883a 	mov	fp,r2
 4024594:	e009883a 	mov	r4,fp
 4024598:	a80b883a 	mov	r5,r21
 402459c:	40237500 	call	4023750 <quorem>
 40245a0:	10800c04 	addi	r2,r2,48
 40245a4:	90800005 	stb	r2,0(r18)
 40245a8:	94800044 	addi	r18,r18,1
 40245ac:	9507c83a 	sub	r3,r18,r20
 40245b0:	8009883a 	mov	r4,r16
 40245b4:	e00b883a 	mov	r5,fp
 40245b8:	01800284 	movi	r6,10
 40245bc:	000f883a 	mov	r7,zero
 40245c0:	1cfff216 	blt	r3,r19,402458c <__flash_rwdata_start+0xffff3cc8>
 40245c4:	1011883a 	mov	r8,r2
 40245c8:	d8800617 	ldw	r2,24(sp)
 40245cc:	00822e0e 	bge	zero,r2,4024e88 <_dtoa_r+0x1510>
 40245d0:	d9000717 	ldw	r4,28(sp)
 40245d4:	0025883a 	mov	r18,zero
 40245d8:	20af883a 	add	r23,r4,r2
 40245dc:	e00b883a 	mov	r5,fp
 40245e0:	01800044 	movi	r6,1
 40245e4:	8009883a 	mov	r4,r16
 40245e8:	da001715 	stw	r8,92(sp)
 40245ec:	40277340 	call	4027734 <__lshift>
 40245f0:	1009883a 	mov	r4,r2
 40245f4:	a80b883a 	mov	r5,r21
 40245f8:	1039883a 	mov	fp,r2
 40245fc:	40278840 	call	4027884 <__mcmp>
 4024600:	da001717 	ldw	r8,92(sp)
 4024604:	00816e0e 	bge	zero,r2,4024bc0 <_dtoa_r+0x1248>
 4024608:	b93fffc3 	ldbu	r4,-1(r23)
 402460c:	b8bfffc4 	addi	r2,r23,-1
 4024610:	1007883a 	mov	r3,r2
 4024614:	01800e44 	movi	r6,57
 4024618:	d9c00717 	ldw	r7,28(sp)
 402461c:	00000506 	br	4024634 <_dtoa_r+0xcbc>
 4024620:	18ffffc4 	addi	r3,r3,-1
 4024624:	38811926 	beq	r7,r2,4024a8c <_dtoa_r+0x1114>
 4024628:	19000003 	ldbu	r4,0(r3)
 402462c:	102f883a 	mov	r23,r2
 4024630:	10bfffc4 	addi	r2,r2,-1
 4024634:	21403fcc 	andi	r5,r4,255
 4024638:	2940201c 	xori	r5,r5,128
 402463c:	297fe004 	addi	r5,r5,-128
 4024640:	29bff726 	beq	r5,r6,4024620 <__flash_rwdata_start+0xffff3d5c>
 4024644:	21000044 	addi	r4,r4,1
 4024648:	11000005 	stb	r4,0(r2)
 402464c:	8009883a 	mov	r4,r16
 4024650:	a80b883a 	mov	r5,r21
 4024654:	4026f9c0 	call	4026f9c <_Bfree>
 4024658:	883e7526 	beq	r17,zero,4024030 <__flash_rwdata_start+0xffff376c>
 402465c:	90000426 	beq	r18,zero,4024670 <_dtoa_r+0xcf8>
 4024660:	94400326 	beq	r18,r17,4024670 <_dtoa_r+0xcf8>
 4024664:	8009883a 	mov	r4,r16
 4024668:	900b883a 	mov	r5,r18
 402466c:	4026f9c0 	call	4026f9c <_Bfree>
 4024670:	8009883a 	mov	r4,r16
 4024674:	880b883a 	mov	r5,r17
 4024678:	4026f9c0 	call	4026f9c <_Bfree>
 402467c:	003e6c06 	br	4024030 <__flash_rwdata_start+0xffff376c>
 4024680:	00800704 	movi	r2,28
 4024684:	d9800817 	ldw	r6,32(sp)
 4024688:	a0a9883a 	add	r20,r20,r2
 402468c:	b0ad883a 	add	r22,r22,r2
 4024690:	308d883a 	add	r6,r6,r2
 4024694:	d9800815 	stw	r6,32(sp)
 4024698:	003fa506 	br	4024530 <__flash_rwdata_start+0xffff3c6c>
 402469c:	013efb84 	movi	r4,-1042
 40246a0:	246bc83a 	sub	r21,r4,r17
 40246a4:	9548983a 	sll	r4,r18,r21
 40246a8:	003d1806 	br	4023b0c <__flash_rwdata_start+0xffff3248>
 40246ac:	d8000d15 	stw	zero,52(sp)
 40246b0:	003d5b06 	br	4023c20 <__flash_rwdata_start+0xffff335c>
 40246b4:	880b883a 	mov	r5,r17
 40246b8:	8009883a 	mov	r4,r16
 40246bc:	01800284 	movi	r6,10
 40246c0:	000f883a 	mov	r7,zero
 40246c4:	4026fc40 	call	4026fc4 <__multadd>
 40246c8:	1023883a 	mov	r17,r2
 40246cc:	d8800c17 	ldw	r2,48(sp)
 40246d0:	0082550e 	bge	zero,r2,4025028 <_dtoa_r+0x16b0>
 40246d4:	d8800615 	stw	r2,24(sp)
 40246d8:	0500050e 	bge	zero,r20,40246f0 <_dtoa_r+0xd78>
 40246dc:	880b883a 	mov	r5,r17
 40246e0:	8009883a 	mov	r4,r16
 40246e4:	a00d883a 	mov	r6,r20
 40246e8:	40277340 	call	4027734 <__lshift>
 40246ec:	1023883a 	mov	r17,r2
 40246f0:	98016a1e 	bne	r19,zero,4024c9c <_dtoa_r+0x1324>
 40246f4:	8829883a 	mov	r20,r17
 40246f8:	d9000617 	ldw	r4,24(sp)
 40246fc:	dcc00717 	ldw	r19,28(sp)
 4024700:	9480004c 	andi	r18,r18,1
 4024704:	20bfffc4 	addi	r2,r4,-1
 4024708:	9885883a 	add	r2,r19,r2
 402470c:	d8800415 	stw	r2,16(sp)
 4024710:	dc800615 	stw	r18,24(sp)
 4024714:	e009883a 	mov	r4,fp
 4024718:	a80b883a 	mov	r5,r21
 402471c:	40237500 	call	4023750 <quorem>
 4024720:	e009883a 	mov	r4,fp
 4024724:	880b883a 	mov	r5,r17
 4024728:	102f883a 	mov	r23,r2
 402472c:	40278840 	call	4027884 <__mcmp>
 4024730:	8009883a 	mov	r4,r16
 4024734:	a80b883a 	mov	r5,r21
 4024738:	a00d883a 	mov	r6,r20
 402473c:	102d883a 	mov	r22,r2
 4024740:	40278e40 	call	40278e4 <__mdiff>
 4024744:	1007883a 	mov	r3,r2
 4024748:	10800317 	ldw	r2,12(r2)
 402474c:	bc800c04 	addi	r18,r23,48
 4024750:	1000971e 	bne	r2,zero,40249b0 <_dtoa_r+0x1038>
 4024754:	180b883a 	mov	r5,r3
 4024758:	e009883a 	mov	r4,fp
 402475c:	d8c01515 	stw	r3,84(sp)
 4024760:	40278840 	call	4027884 <__mcmp>
 4024764:	d8c01517 	ldw	r3,84(sp)
 4024768:	8009883a 	mov	r4,r16
 402476c:	d8801515 	stw	r2,84(sp)
 4024770:	180b883a 	mov	r5,r3
 4024774:	4026f9c0 	call	4026f9c <_Bfree>
 4024778:	d8801517 	ldw	r2,84(sp)
 402477c:	1000041e 	bne	r2,zero,4024790 <_dtoa_r+0xe18>
 4024780:	d9800317 	ldw	r6,12(sp)
 4024784:	3000021e 	bne	r6,zero,4024790 <_dtoa_r+0xe18>
 4024788:	d8c00617 	ldw	r3,24(sp)
 402478c:	18007626 	beq	r3,zero,4024968 <_dtoa_r+0xff0>
 4024790:	b0005b16 	blt	r22,zero,4024900 <_dtoa_r+0xf88>
 4024794:	b000041e 	bne	r22,zero,40247a8 <_dtoa_r+0xe30>
 4024798:	d9000317 	ldw	r4,12(sp)
 402479c:	2000021e 	bne	r4,zero,40247a8 <_dtoa_r+0xe30>
 40247a0:	d8c00617 	ldw	r3,24(sp)
 40247a4:	18005626 	beq	r3,zero,4024900 <_dtoa_r+0xf88>
 40247a8:	00814d16 	blt	zero,r2,4024ce0 <_dtoa_r+0x1368>
 40247ac:	d8c00417 	ldw	r3,16(sp)
 40247b0:	9d800044 	addi	r22,r19,1
 40247b4:	9c800005 	stb	r18,0(r19)
 40247b8:	b02f883a 	mov	r23,r22
 40247bc:	98c14c26 	beq	r19,r3,4024cf0 <_dtoa_r+0x1378>
 40247c0:	e00b883a 	mov	r5,fp
 40247c4:	8009883a 	mov	r4,r16
 40247c8:	01800284 	movi	r6,10
 40247cc:	000f883a 	mov	r7,zero
 40247d0:	4026fc40 	call	4026fc4 <__multadd>
 40247d4:	1039883a 	mov	fp,r2
 40247d8:	8d006d26 	beq	r17,r20,4024990 <_dtoa_r+0x1018>
 40247dc:	880b883a 	mov	r5,r17
 40247e0:	01800284 	movi	r6,10
 40247e4:	000f883a 	mov	r7,zero
 40247e8:	8009883a 	mov	r4,r16
 40247ec:	4026fc40 	call	4026fc4 <__multadd>
 40247f0:	a00b883a 	mov	r5,r20
 40247f4:	8009883a 	mov	r4,r16
 40247f8:	01800284 	movi	r6,10
 40247fc:	000f883a 	mov	r7,zero
 4024800:	1023883a 	mov	r17,r2
 4024804:	4026fc40 	call	4026fc4 <__multadd>
 4024808:	1029883a 	mov	r20,r2
 402480c:	b027883a 	mov	r19,r22
 4024810:	003fc006 	br	4024714 <__flash_rwdata_start+0xffff3e50>
 4024814:	a005883a 	mov	r2,r20
 4024818:	003ede06 	br	4024394 <__flash_rwdata_start+0xffff3ad0>
 402481c:	01000044 	movi	r4,1
 4024820:	d9000b15 	stw	r4,44(sp)
 4024824:	d9802217 	ldw	r6,136(sp)
 4024828:	0180dc0e 	bge	zero,r6,4024b9c <_dtoa_r+0x1224>
 402482c:	3023883a 	mov	r17,r6
 4024830:	d9800c15 	stw	r6,48(sp)
 4024834:	d9800615 	stw	r6,24(sp)
 4024838:	003d1e06 	br	4023cb4 <__flash_rwdata_start+0xffff33f0>
 402483c:	d8800617 	ldw	r2,24(sp)
 4024840:	00be3716 	blt	zero,r2,4024120 <__flash_rwdata_start+0xffff385c>
 4024844:	1000be1e 	bne	r2,zero,4024b40 <_dtoa_r+0x11c8>
 4024848:	8809883a 	mov	r4,r17
 402484c:	a00b883a 	mov	r5,r20
 4024850:	000d883a 	mov	r6,zero
 4024854:	01d00534 	movhi	r7,16404
 4024858:	402c8840 	call	402c884 <__muldf3>
 402485c:	1009883a 	mov	r4,r2
 4024860:	180b883a 	mov	r5,r3
 4024864:	900d883a 	mov	r6,r18
 4024868:	980f883a 	mov	r7,r19
 402486c:	402c6c40 	call	402c6c4 <__gedf2>
 4024870:	002b883a 	mov	r21,zero
 4024874:	0023883a 	mov	r17,zero
 4024878:	10007a16 	blt	r2,zero,4024a64 <_dtoa_r+0x10ec>
 402487c:	d9002217 	ldw	r4,136(sp)
 4024880:	ddc00717 	ldw	r23,28(sp)
 4024884:	0108303a 	nor	r4,zero,r4
 4024888:	d9000515 	stw	r4,20(sp)
 402488c:	8009883a 	mov	r4,r16
 4024890:	a80b883a 	mov	r5,r21
 4024894:	4026f9c0 	call	4026f9c <_Bfree>
 4024898:	883f751e 	bne	r17,zero,4024670 <__flash_rwdata_start+0xffff3dac>
 402489c:	003de406 	br	4024030 <__flash_rwdata_start+0xffff376c>
 40248a0:	e00b883a 	mov	r5,fp
 40248a4:	8009883a 	mov	r4,r16
 40248a8:	40275f40 	call	40275f4 <__pow5mult>
 40248ac:	1039883a 	mov	fp,r2
 40248b0:	003ed306 	br	4024400 <__flash_rwdata_start+0xffff3b3c>
 40248b4:	903ee01e 	bne	r18,zero,4024438 <__flash_rwdata_start+0xffff3b74>
 40248b8:	00800434 	movhi	r2,16
 40248bc:	10bfffc4 	addi	r2,r2,-1
 40248c0:	9884703a 	and	r2,r19,r2
 40248c4:	103f081e 	bne	r2,zero,40244e8 <__flash_rwdata_start+0xffff3c24>
 40248c8:	9cdffc2c 	andhi	r19,r19,32752
 40248cc:	983f0626 	beq	r19,zero,40244e8 <__flash_rwdata_start+0xffff3c24>
 40248d0:	d8800817 	ldw	r2,32(sp)
 40248d4:	b5800044 	addi	r22,r22,1
 40248d8:	04c00044 	movi	r19,1
 40248dc:	10800044 	addi	r2,r2,1
 40248e0:	d8800815 	stw	r2,32(sp)
 40248e4:	003f0106 	br	40244ec <__flash_rwdata_start+0xffff3c28>
 40248e8:	d9800f17 	ldw	r6,60(sp)
 40248ec:	30016826 	beq	r6,zero,4024e90 <_dtoa_r+0x1518>
 40248f0:	10810cc4 	addi	r2,r2,1075
 40248f4:	dd400917 	ldw	r21,36(sp)
 40248f8:	dd000817 	ldw	r20,32(sp)
 40248fc:	003e9906 	br	4024364 <__flash_rwdata_start+0xffff3aa0>
 4024900:	9011883a 	mov	r8,r18
 4024904:	4007883a 	mov	r3,r8
 4024908:	e02d883a 	mov	r22,fp
 402490c:	0080100e 	bge	zero,r2,4024950 <_dtoa_r+0xfd8>
 4024910:	01800044 	movi	r6,1
 4024914:	8009883a 	mov	r4,r16
 4024918:	e00b883a 	mov	r5,fp
 402491c:	da001515 	stw	r8,84(sp)
 4024920:	da001715 	stw	r8,92(sp)
 4024924:	40277340 	call	4027734 <__lshift>
 4024928:	1009883a 	mov	r4,r2
 402492c:	a80b883a 	mov	r5,r21
 4024930:	102d883a 	mov	r22,r2
 4024934:	40278840 	call	4027884 <__mcmp>
 4024938:	d8c01517 	ldw	r3,84(sp)
 402493c:	da001717 	ldw	r8,92(sp)
 4024940:	0081a50e 	bge	zero,r2,4024fd8 <_dtoa_r+0x1660>
 4024944:	00800e44 	movi	r2,57
 4024948:	40817b26 	beq	r8,r2,4024f38 <_dtoa_r+0x15c0>
 402494c:	40c00044 	addi	r3,r8,1
 4024950:	8825883a 	mov	r18,r17
 4024954:	9dc00044 	addi	r23,r19,1
 4024958:	98c00005 	stb	r3,0(r19)
 402495c:	a023883a 	mov	r17,r20
 4024960:	b039883a 	mov	fp,r22
 4024964:	003f3906 	br	402464c <__flash_rwdata_start+0xffff3d88>
 4024968:	00800e44 	movi	r2,57
 402496c:	9011883a 	mov	r8,r18
 4024970:	90817226 	beq	r18,r2,4024f3c <_dtoa_r+0x15c4>
 4024974:	0580010e 	bge	zero,r22,402497c <_dtoa_r+0x1004>
 4024978:	ba000c44 	addi	r8,r23,49
 402497c:	8825883a 	mov	r18,r17
 4024980:	9dc00044 	addi	r23,r19,1
 4024984:	9a000005 	stb	r8,0(r19)
 4024988:	a023883a 	mov	r17,r20
 402498c:	003f2f06 	br	402464c <__flash_rwdata_start+0xffff3d88>
 4024990:	880b883a 	mov	r5,r17
 4024994:	8009883a 	mov	r4,r16
 4024998:	01800284 	movi	r6,10
 402499c:	000f883a 	mov	r7,zero
 40249a0:	4026fc40 	call	4026fc4 <__multadd>
 40249a4:	1023883a 	mov	r17,r2
 40249a8:	1029883a 	mov	r20,r2
 40249ac:	003f9706 	br	402480c <__flash_rwdata_start+0xffff3f48>
 40249b0:	8009883a 	mov	r4,r16
 40249b4:	180b883a 	mov	r5,r3
 40249b8:	4026f9c0 	call	4026f9c <_Bfree>
 40249bc:	00800044 	movi	r2,1
 40249c0:	003f7306 	br	4024790 <__flash_rwdata_start+0xffff3ecc>
 40249c4:	e009883a 	mov	r4,fp
 40249c8:	a80b883a 	mov	r5,r21
 40249cc:	40278840 	call	4027884 <__mcmp>
 40249d0:	103ee60e 	bge	r2,zero,402456c <__flash_rwdata_start+0xffff3ca8>
 40249d4:	8009883a 	mov	r4,r16
 40249d8:	e00b883a 	mov	r5,fp
 40249dc:	01800284 	movi	r6,10
 40249e0:	000f883a 	mov	r7,zero
 40249e4:	4026fc40 	call	4026fc4 <__multadd>
 40249e8:	d9000517 	ldw	r4,20(sp)
 40249ec:	d9800b17 	ldw	r6,44(sp)
 40249f0:	1039883a 	mov	fp,r2
 40249f4:	213fffc4 	addi	r4,r4,-1
 40249f8:	d9000515 	stw	r4,20(sp)
 40249fc:	303f2d1e 	bne	r6,zero,40246b4 <__flash_rwdata_start+0xffff3df0>
 4024a00:	d9000c17 	ldw	r4,48(sp)
 4024a04:	0101780e 	bge	zero,r4,4024fe8 <_dtoa_r+0x1670>
 4024a08:	d9000615 	stw	r4,24(sp)
 4024a0c:	003edb06 	br	402457c <__flash_rwdata_start+0xffff3cb8>
 4024a10:	00800084 	movi	r2,2
 4024a14:	30818e1e 	bne	r6,r2,4025050 <_dtoa_r+0x16d8>
 4024a18:	d8000b15 	stw	zero,44(sp)
 4024a1c:	003f8106 	br	4024824 <__flash_rwdata_start+0xffff3f60>
 4024a20:	d8800717 	ldw	r2,28(sp)
 4024a24:	003c0306 	br	4023a34 <__flash_rwdata_start+0xffff3170>
 4024a28:	d9000317 	ldw	r4,12(sp)
 4024a2c:	00800084 	movi	r2,2
 4024a30:	113ed00e 	bge	r2,r4,4024574 <__flash_rwdata_start+0xffff3cb0>
 4024a34:	d8c00617 	ldw	r3,24(sp)
 4024a38:	183f901e 	bne	r3,zero,402487c <__flash_rwdata_start+0xffff3fb8>
 4024a3c:	a80b883a 	mov	r5,r21
 4024a40:	8009883a 	mov	r4,r16
 4024a44:	01800144 	movi	r6,5
 4024a48:	000f883a 	mov	r7,zero
 4024a4c:	4026fc40 	call	4026fc4 <__multadd>
 4024a50:	e009883a 	mov	r4,fp
 4024a54:	100b883a 	mov	r5,r2
 4024a58:	102b883a 	mov	r21,r2
 4024a5c:	40278840 	call	4027884 <__mcmp>
 4024a60:	00bf860e 	bge	zero,r2,402487c <__flash_rwdata_start+0xffff3fb8>
 4024a64:	d9800717 	ldw	r6,28(sp)
 4024a68:	00800c44 	movi	r2,49
 4024a6c:	30800005 	stb	r2,0(r6)
 4024a70:	d8800517 	ldw	r2,20(sp)
 4024a74:	35c00044 	addi	r23,r6,1
 4024a78:	10800044 	addi	r2,r2,1
 4024a7c:	d8800515 	stw	r2,20(sp)
 4024a80:	003f8206 	br	402488c <__flash_rwdata_start+0xffff3fc8>
 4024a84:	903e981e 	bne	r18,zero,40244e8 <__flash_rwdata_start+0xffff3c24>
 4024a88:	003f8b06 	br	40248b8 <__flash_rwdata_start+0xffff3ff4>
 4024a8c:	d9800517 	ldw	r6,20(sp)
 4024a90:	d8c00717 	ldw	r3,28(sp)
 4024a94:	00800c44 	movi	r2,49
 4024a98:	31800044 	addi	r6,r6,1
 4024a9c:	d9800515 	stw	r6,20(sp)
 4024aa0:	18800005 	stb	r2,0(r3)
 4024aa4:	003ee906 	br	402464c <__flash_rwdata_start+0xffff3d88>
 4024aa8:	dc000317 	ldw	r16,12(sp)
 4024aac:	003d6006 	br	4024030 <__flash_rwdata_start+0xffff376c>
 4024ab0:	8809883a 	mov	r4,r17
 4024ab4:	402da480 	call	402da48 <__floatsidf>
 4024ab8:	a009883a 	mov	r4,r20
 4024abc:	a80b883a 	mov	r5,r21
 4024ac0:	100d883a 	mov	r6,r2
 4024ac4:	180f883a 	mov	r7,r3
 4024ac8:	402c8840 	call	402c884 <__muldf3>
 4024acc:	1009883a 	mov	r4,r2
 4024ad0:	180b883a 	mov	r5,r3
 4024ad4:	000d883a 	mov	r6,zero
 4024ad8:	01d00734 	movhi	r7,16412
 4024adc:	402b4240 	call	402b424 <__adddf3>
 4024ae0:	1023883a 	mov	r17,r2
 4024ae4:	00bf3034 	movhi	r2,64704
 4024ae8:	1885883a 	add	r2,r3,r2
 4024aec:	d8800e15 	stw	r2,56(sp)
 4024af0:	a009883a 	mov	r4,r20
 4024af4:	a80b883a 	mov	r5,r21
 4024af8:	000d883a 	mov	r6,zero
 4024afc:	01d00534 	movhi	r7,16404
 4024b00:	402d0f00 	call	402d0f0 <__subdf3>
 4024b04:	d9c00e17 	ldw	r7,56(sp)
 4024b08:	1009883a 	mov	r4,r2
 4024b0c:	180b883a 	mov	r5,r3
 4024b10:	880d883a 	mov	r6,r17
 4024b14:	102b883a 	mov	r21,r2
 4024b18:	1829883a 	mov	r20,r3
 4024b1c:	402c6c40 	call	402c6c4 <__gedf2>
 4024b20:	00807716 	blt	zero,r2,4024d00 <_dtoa_r+0x1388>
 4024b24:	d8800e17 	ldw	r2,56(sp)
 4024b28:	a809883a 	mov	r4,r21
 4024b2c:	a00b883a 	mov	r5,r20
 4024b30:	11e0003c 	xorhi	r7,r2,32768
 4024b34:	880d883a 	mov	r6,r17
 4024b38:	402c7a40 	call	402c7a4 <__ledf2>
 4024b3c:	103d6b0e 	bge	r2,zero,40240ec <__flash_rwdata_start+0xffff3828>
 4024b40:	002b883a 	mov	r21,zero
 4024b44:	0023883a 	mov	r17,zero
 4024b48:	003f4c06 	br	402487c <__flash_rwdata_start+0xffff3fb8>
 4024b4c:	d9800917 	ldw	r6,36(sp)
 4024b50:	e00b883a 	mov	r5,fp
 4024b54:	8009883a 	mov	r4,r16
 4024b58:	40275f40 	call	40275f4 <__pow5mult>
 4024b5c:	1039883a 	mov	fp,r2
 4024b60:	003e2706 	br	4024400 <__flash_rwdata_start+0xffff3b3c>
 4024b64:	d8000b15 	stw	zero,44(sp)
 4024b68:	003c4906 	br	4023c90 <__flash_rwdata_start+0xffff33cc>
 4024b6c:	d9000917 	ldw	r4,36(sp)
 4024b70:	d9800a17 	ldw	r6,40(sp)
 4024b74:	dd400915 	stw	r21,36(sp)
 4024b78:	a905c83a 	sub	r2,r21,r4
 4024b7c:	308d883a 	add	r6,r6,r2
 4024b80:	d9800a15 	stw	r6,40(sp)
 4024b84:	002b883a 	mov	r21,zero
 4024b88:	003df206 	br	4024354 <__flash_rwdata_start+0xffff3a90>
 4024b8c:	dc800e15 	stw	r18,56(sp)
 4024b90:	982b883a 	mov	r21,r19
 4024b94:	04400084 	movi	r17,2
 4024b98:	003c7406 	br	4023d6c <__flash_rwdata_start+0xffff34a8>
 4024b9c:	04400044 	movi	r17,1
 4024ba0:	dc400c15 	stw	r17,48(sp)
 4024ba4:	dc400615 	stw	r17,24(sp)
 4024ba8:	dc402215 	stw	r17,136(sp)
 4024bac:	80001115 	stw	zero,68(r16)
 4024bb0:	000b883a 	mov	r5,zero
 4024bb4:	003c4a06 	br	4023ce0 <__flash_rwdata_start+0xffff341c>
 4024bb8:	3023883a 	mov	r17,r6
 4024bbc:	003ffb06 	br	4024bac <__flash_rwdata_start+0xffff42e8>
 4024bc0:	1000021e 	bne	r2,zero,4024bcc <_dtoa_r+0x1254>
 4024bc4:	4200004c 	andi	r8,r8,1
 4024bc8:	403e8f1e 	bne	r8,zero,4024608 <__flash_rwdata_start+0xffff3d44>
 4024bcc:	01000c04 	movi	r4,48
 4024bd0:	00000106 	br	4024bd8 <_dtoa_r+0x1260>
 4024bd4:	102f883a 	mov	r23,r2
 4024bd8:	b8bfffc4 	addi	r2,r23,-1
 4024bdc:	10c00007 	ldb	r3,0(r2)
 4024be0:	193ffc26 	beq	r3,r4,4024bd4 <__flash_rwdata_start+0xffff4310>
 4024be4:	003e9906 	br	402464c <__flash_rwdata_start+0xffff3d88>
 4024be8:	d9000517 	ldw	r4,20(sp)
 4024bec:	012fc83a 	sub	r23,zero,r4
 4024bf0:	b800ad26 	beq	r23,zero,4024ea8 <_dtoa_r+0x1530>
 4024bf4:	b88003cc 	andi	r2,r23,15
 4024bf8:	100490fa 	slli	r2,r2,3
 4024bfc:	00c00034 	movhi	r3,0
 4024c00:	18c04e04 	addi	r3,r3,312
 4024c04:	1885883a 	add	r2,r3,r2
 4024c08:	11800017 	ldw	r6,0(r2)
 4024c0c:	11c00117 	ldw	r7,4(r2)
 4024c10:	b82fd13a 	srai	r23,r23,4
 4024c14:	9009883a 	mov	r4,r18
 4024c18:	980b883a 	mov	r5,r19
 4024c1c:	402c8840 	call	402c884 <__muldf3>
 4024c20:	1029883a 	mov	r20,r2
 4024c24:	182b883a 	mov	r21,r3
 4024c28:	b800f426 	beq	r23,zero,4024ffc <_dtoa_r+0x1684>
 4024c2c:	02000034 	movhi	r8,0
 4024c30:	42004404 	addi	r8,r8,272
 4024c34:	8029883a 	mov	r20,r16
 4024c38:	04400084 	movi	r17,2
 4024c3c:	4021883a 	mov	r16,r8
 4024c40:	b980004c 	andi	r6,r23,1
 4024c44:	1009883a 	mov	r4,r2
 4024c48:	b82fd07a 	srai	r23,r23,1
 4024c4c:	180b883a 	mov	r5,r3
 4024c50:	30000426 	beq	r6,zero,4024c64 <_dtoa_r+0x12ec>
 4024c54:	81800017 	ldw	r6,0(r16)
 4024c58:	81c00117 	ldw	r7,4(r16)
 4024c5c:	8c400044 	addi	r17,r17,1
 4024c60:	402c8840 	call	402c884 <__muldf3>
 4024c64:	84000204 	addi	r16,r16,8
 4024c68:	b83ff51e 	bne	r23,zero,4024c40 <__flash_rwdata_start+0xffff437c>
 4024c6c:	a021883a 	mov	r16,r20
 4024c70:	182b883a 	mov	r21,r3
 4024c74:	1029883a 	mov	r20,r2
 4024c78:	003c5506 	br	4023dd0 <__flash_rwdata_start+0xffff350c>
 4024c7c:	d9800517 	ldw	r6,20(sp)
 4024c80:	d9000717 	ldw	r4,28(sp)
 4024c84:	00c00c04 	movi	r3,48
 4024c88:	31800044 	addi	r6,r6,1
 4024c8c:	d9800515 	stw	r6,20(sp)
 4024c90:	20c00005 	stb	r3,0(r4)
 4024c94:	02000c44 	movi	r8,49
 4024c98:	003da206 	br	4024324 <__flash_rwdata_start+0xffff3a60>
 4024c9c:	89400117 	ldw	r5,4(r17)
 4024ca0:	8009883a 	mov	r4,r16
 4024ca4:	4026ef40 	call	4026ef4 <_Balloc>
 4024ca8:	89800417 	ldw	r6,16(r17)
 4024cac:	11000304 	addi	r4,r2,12
 4024cb0:	89400304 	addi	r5,r17,12
 4024cb4:	31800084 	addi	r6,r6,2
 4024cb8:	318d883a 	add	r6,r6,r6
 4024cbc:	318d883a 	add	r6,r6,r6
 4024cc0:	1027883a 	mov	r19,r2
 4024cc4:	40211340 	call	4021134 <memcpy>
 4024cc8:	8009883a 	mov	r4,r16
 4024ccc:	980b883a 	mov	r5,r19
 4024cd0:	01800044 	movi	r6,1
 4024cd4:	40277340 	call	4027734 <__lshift>
 4024cd8:	1029883a 	mov	r20,r2
 4024cdc:	003e8606 	br	40246f8 <__flash_rwdata_start+0xffff3e34>
 4024ce0:	00800e44 	movi	r2,57
 4024ce4:	90809526 	beq	r18,r2,4024f3c <_dtoa_r+0x15c4>
 4024ce8:	92000044 	addi	r8,r18,1
 4024cec:	003f2306 	br	402497c <__flash_rwdata_start+0xffff40b8>
 4024cf0:	9011883a 	mov	r8,r18
 4024cf4:	8825883a 	mov	r18,r17
 4024cf8:	a023883a 	mov	r17,r20
 4024cfc:	003e3706 	br	40245dc <__flash_rwdata_start+0xffff3d18>
 4024d00:	002b883a 	mov	r21,zero
 4024d04:	0023883a 	mov	r17,zero
 4024d08:	003f5606 	br	4024a64 <__flash_rwdata_start+0xffff41a0>
 4024d0c:	51bfffc4 	addi	r6,r10,-1
 4024d10:	300490fa 	slli	r2,r6,3
 4024d14:	00c00034 	movhi	r3,0
 4024d18:	18c04e04 	addi	r3,r3,312
 4024d1c:	1885883a 	add	r2,r3,r2
 4024d20:	d9c00e17 	ldw	r7,56(sp)
 4024d24:	11000017 	ldw	r4,0(r2)
 4024d28:	11400117 	ldw	r5,4(r2)
 4024d2c:	d8800717 	ldw	r2,28(sp)
 4024d30:	d9801015 	stw	r6,64(sp)
 4024d34:	880d883a 	mov	r6,r17
 4024d38:	da801615 	stw	r10,88(sp)
 4024d3c:	15c00044 	addi	r23,r2,1
 4024d40:	402c8840 	call	402c884 <__muldf3>
 4024d44:	a80b883a 	mov	r5,r21
 4024d48:	a009883a 	mov	r4,r20
 4024d4c:	d8c01115 	stw	r3,68(sp)
 4024d50:	d8800e15 	stw	r2,56(sp)
 4024d54:	402d9c00 	call	402d9c0 <__fixdfsi>
 4024d58:	1009883a 	mov	r4,r2
 4024d5c:	1023883a 	mov	r17,r2
 4024d60:	402da480 	call	402da48 <__floatsidf>
 4024d64:	a009883a 	mov	r4,r20
 4024d68:	a80b883a 	mov	r5,r21
 4024d6c:	100d883a 	mov	r6,r2
 4024d70:	180f883a 	mov	r7,r3
 4024d74:	402d0f00 	call	402d0f0 <__subdf3>
 4024d78:	1813883a 	mov	r9,r3
 4024d7c:	d8c00717 	ldw	r3,28(sp)
 4024d80:	8c400c04 	addi	r17,r17,48
 4024d84:	1011883a 	mov	r8,r2
 4024d88:	1c400005 	stb	r17,0(r3)
 4024d8c:	da801617 	ldw	r10,88(sp)
 4024d90:	00800044 	movi	r2,1
 4024d94:	50802326 	beq	r10,r2,4024e24 <_dtoa_r+0x14ac>
 4024d98:	d8800717 	ldw	r2,28(sp)
 4024d9c:	b82b883a 	mov	r21,r23
 4024da0:	dc001315 	stw	r16,76(sp)
 4024da4:	12a9883a 	add	r20,r2,r10
 4024da8:	4807883a 	mov	r3,r9
 4024dac:	4005883a 	mov	r2,r8
 4024db0:	dc801415 	stw	r18,80(sp)
 4024db4:	000d883a 	mov	r6,zero
 4024db8:	01d00934 	movhi	r7,16420
 4024dbc:	1009883a 	mov	r4,r2
 4024dc0:	180b883a 	mov	r5,r3
 4024dc4:	402c8840 	call	402c884 <__muldf3>
 4024dc8:	180b883a 	mov	r5,r3
 4024dcc:	1009883a 	mov	r4,r2
 4024dd0:	1821883a 	mov	r16,r3
 4024dd4:	1025883a 	mov	r18,r2
 4024dd8:	402d9c00 	call	402d9c0 <__fixdfsi>
 4024ddc:	1009883a 	mov	r4,r2
 4024de0:	1023883a 	mov	r17,r2
 4024de4:	402da480 	call	402da48 <__floatsidf>
 4024de8:	9009883a 	mov	r4,r18
 4024dec:	800b883a 	mov	r5,r16
 4024df0:	100d883a 	mov	r6,r2
 4024df4:	180f883a 	mov	r7,r3
 4024df8:	8c400c04 	addi	r17,r17,48
 4024dfc:	402d0f00 	call	402d0f0 <__subdf3>
 4024e00:	ad400044 	addi	r21,r21,1
 4024e04:	ac7fffc5 	stb	r17,-1(r21)
 4024e08:	ad3fea1e 	bne	r21,r20,4024db4 <__flash_rwdata_start+0xffff44f0>
 4024e0c:	1813883a 	mov	r9,r3
 4024e10:	d8c01017 	ldw	r3,64(sp)
 4024e14:	dc001317 	ldw	r16,76(sp)
 4024e18:	dc801417 	ldw	r18,80(sp)
 4024e1c:	1011883a 	mov	r8,r2
 4024e20:	b8ef883a 	add	r23,r23,r3
 4024e24:	d9000e17 	ldw	r4,56(sp)
 4024e28:	d9401117 	ldw	r5,68(sp)
 4024e2c:	000d883a 	mov	r6,zero
 4024e30:	01cff834 	movhi	r7,16352
 4024e34:	da001715 	stw	r8,92(sp)
 4024e38:	da401515 	stw	r9,84(sp)
 4024e3c:	402b4240 	call	402b424 <__adddf3>
 4024e40:	da001717 	ldw	r8,92(sp)
 4024e44:	da401517 	ldw	r9,84(sp)
 4024e48:	1009883a 	mov	r4,r2
 4024e4c:	400d883a 	mov	r6,r8
 4024e50:	480f883a 	mov	r7,r9
 4024e54:	180b883a 	mov	r5,r3
 4024e58:	402c7a40 	call	402c7a4 <__ledf2>
 4024e5c:	da001717 	ldw	r8,92(sp)
 4024e60:	da401517 	ldw	r9,84(sp)
 4024e64:	10003b0e 	bge	r2,zero,4024f54 <_dtoa_r+0x15dc>
 4024e68:	d9001217 	ldw	r4,72(sp)
 4024e6c:	bd7fffc3 	ldbu	r21,-1(r23)
 4024e70:	d9000515 	stw	r4,20(sp)
 4024e74:	003d1c06 	br	40242e8 <__flash_rwdata_start+0xffff3a24>
 4024e78:	d8c00817 	ldw	r3,32(sp)
 4024e7c:	18a9c83a 	sub	r20,r3,r2
 4024e80:	0005883a 	mov	r2,zero
 4024e84:	003d3706 	br	4024364 <__flash_rwdata_start+0xffff3aa0>
 4024e88:	00800044 	movi	r2,1
 4024e8c:	003dd006 	br	40245d0 <__flash_rwdata_start+0xffff3d0c>
 4024e90:	d8c00217 	ldw	r3,8(sp)
 4024e94:	00800d84 	movi	r2,54
 4024e98:	dd400917 	ldw	r21,36(sp)
 4024e9c:	10c5c83a 	sub	r2,r2,r3
 4024ea0:	dd000817 	ldw	r20,32(sp)
 4024ea4:	003d2f06 	br	4024364 <__flash_rwdata_start+0xffff3aa0>
 4024ea8:	9029883a 	mov	r20,r18
 4024eac:	982b883a 	mov	r21,r19
 4024eb0:	04400084 	movi	r17,2
 4024eb4:	003bc606 	br	4023dd0 <__flash_rwdata_start+0xffff350c>
 4024eb8:	d8800617 	ldw	r2,24(sp)
 4024ebc:	103efc26 	beq	r2,zero,4024ab0 <__flash_rwdata_start+0xffff41ec>
 4024ec0:	d8c00c17 	ldw	r3,48(sp)
 4024ec4:	00fc890e 	bge	zero,r3,40240ec <__flash_rwdata_start+0xffff3828>
 4024ec8:	a80b883a 	mov	r5,r21
 4024ecc:	a009883a 	mov	r4,r20
 4024ed0:	000d883a 	mov	r6,zero
 4024ed4:	01d00934 	movhi	r7,16420
 4024ed8:	402c8840 	call	402c884 <__muldf3>
 4024edc:	89000044 	addi	r4,r17,1
 4024ee0:	1029883a 	mov	r20,r2
 4024ee4:	182b883a 	mov	r21,r3
 4024ee8:	402da480 	call	402da48 <__floatsidf>
 4024eec:	a009883a 	mov	r4,r20
 4024ef0:	a80b883a 	mov	r5,r21
 4024ef4:	100d883a 	mov	r6,r2
 4024ef8:	180f883a 	mov	r7,r3
 4024efc:	402c8840 	call	402c884 <__muldf3>
 4024f00:	1009883a 	mov	r4,r2
 4024f04:	180b883a 	mov	r5,r3
 4024f08:	000d883a 	mov	r6,zero
 4024f0c:	01d00734 	movhi	r7,16412
 4024f10:	402b4240 	call	402b424 <__adddf3>
 4024f14:	d9000517 	ldw	r4,20(sp)
 4024f18:	1023883a 	mov	r17,r2
 4024f1c:	00bf3034 	movhi	r2,64704
 4024f20:	213fffc4 	addi	r4,r4,-1
 4024f24:	1885883a 	add	r2,r3,r2
 4024f28:	d9001215 	stw	r4,72(sp)
 4024f2c:	d8800e15 	stw	r2,56(sp)
 4024f30:	da800c17 	ldw	r10,48(sp)
 4024f34:	003bc306 	br	4023e44 <__flash_rwdata_start+0xffff3580>
 4024f38:	b039883a 	mov	fp,r22
 4024f3c:	01000e44 	movi	r4,57
 4024f40:	8825883a 	mov	r18,r17
 4024f44:	9dc00044 	addi	r23,r19,1
 4024f48:	99000005 	stb	r4,0(r19)
 4024f4c:	a023883a 	mov	r17,r20
 4024f50:	003dae06 	br	402460c <__flash_rwdata_start+0xffff3d48>
 4024f54:	d9800e17 	ldw	r6,56(sp)
 4024f58:	d9c01117 	ldw	r7,68(sp)
 4024f5c:	0009883a 	mov	r4,zero
 4024f60:	014ff834 	movhi	r5,16352
 4024f64:	da001715 	stw	r8,92(sp)
 4024f68:	da401515 	stw	r9,84(sp)
 4024f6c:	402d0f00 	call	402d0f0 <__subdf3>
 4024f70:	da001717 	ldw	r8,92(sp)
 4024f74:	da401517 	ldw	r9,84(sp)
 4024f78:	1009883a 	mov	r4,r2
 4024f7c:	180b883a 	mov	r5,r3
 4024f80:	400d883a 	mov	r6,r8
 4024f84:	480f883a 	mov	r7,r9
 4024f88:	402c6c40 	call	402c6c4 <__gedf2>
 4024f8c:	00bc570e 	bge	zero,r2,40240ec <__flash_rwdata_start+0xffff3828>
 4024f90:	01000c04 	movi	r4,48
 4024f94:	00000106 	br	4024f9c <_dtoa_r+0x1624>
 4024f98:	102f883a 	mov	r23,r2
 4024f9c:	b8bfffc4 	addi	r2,r23,-1
 4024fa0:	10c00007 	ldb	r3,0(r2)
 4024fa4:	193ffc26 	beq	r3,r4,4024f98 <__flash_rwdata_start+0xffff46d4>
 4024fa8:	d9801217 	ldw	r6,72(sp)
 4024fac:	d9800515 	stw	r6,20(sp)
 4024fb0:	003c1f06 	br	4024030 <__flash_rwdata_start+0xffff376c>
 4024fb4:	d8801217 	ldw	r2,72(sp)
 4024fb8:	dc001117 	ldw	r16,68(sp)
 4024fbc:	d8800515 	stw	r2,20(sp)
 4024fc0:	003cc906 	br	40242e8 <__flash_rwdata_start+0xffff3a24>
 4024fc4:	dd801317 	ldw	r22,76(sp)
 4024fc8:	dc001117 	ldw	r16,68(sp)
 4024fcc:	dcc01417 	ldw	r19,80(sp)
 4024fd0:	dc801017 	ldw	r18,64(sp)
 4024fd4:	003c4506 	br	40240ec <__flash_rwdata_start+0xffff3828>
 4024fd8:	103e5d1e 	bne	r2,zero,4024950 <__flash_rwdata_start+0xffff408c>
 4024fdc:	4080004c 	andi	r2,r8,1
 4024fe0:	103e5b26 	beq	r2,zero,4024950 <__flash_rwdata_start+0xffff408c>
 4024fe4:	003e5706 	br	4024944 <__flash_rwdata_start+0xffff4080>
 4024fe8:	d8c00317 	ldw	r3,12(sp)
 4024fec:	00800084 	movi	r2,2
 4024ff0:	10c00a16 	blt	r2,r3,402501c <_dtoa_r+0x16a4>
 4024ff4:	d9000c17 	ldw	r4,48(sp)
 4024ff8:	003e8306 	br	4024a08 <__flash_rwdata_start+0xffff4144>
 4024ffc:	04400084 	movi	r17,2
 4025000:	003b7306 	br	4023dd0 <__flash_rwdata_start+0xffff350c>
 4025004:	d9801217 	ldw	r6,72(sp)
 4025008:	d9800515 	stw	r6,20(sp)
 402500c:	003cb606 	br	40242e8 <__flash_rwdata_start+0xffff3a24>
 4025010:	d9001217 	ldw	r4,72(sp)
 4025014:	d9000515 	stw	r4,20(sp)
 4025018:	003c0506 	br	4024030 <__flash_rwdata_start+0xffff376c>
 402501c:	d9800c17 	ldw	r6,48(sp)
 4025020:	d9800615 	stw	r6,24(sp)
 4025024:	003e8306 	br	4024a34 <__flash_rwdata_start+0xffff4170>
 4025028:	d9800317 	ldw	r6,12(sp)
 402502c:	00800084 	movi	r2,2
 4025030:	11800216 	blt	r2,r6,402503c <_dtoa_r+0x16c4>
 4025034:	d8800c17 	ldw	r2,48(sp)
 4025038:	003da606 	br	40246d4 <__flash_rwdata_start+0xffff3e10>
 402503c:	d8800c17 	ldw	r2,48(sp)
 4025040:	d8800615 	stw	r2,24(sp)
 4025044:	003e7b06 	br	4024a34 <__flash_rwdata_start+0xffff4170>
 4025048:	05000044 	movi	r20,1
 402504c:	003b0506 	br	4023c64 <__flash_rwdata_start+0xffff33a0>
 4025050:	8009883a 	mov	r4,r16
 4025054:	80001115 	stw	zero,68(r16)
 4025058:	000b883a 	mov	r5,zero
 402505c:	4026ef40 	call	4026ef4 <_Balloc>
 4025060:	d8800715 	stw	r2,28(sp)
 4025064:	d8c00717 	ldw	r3,28(sp)
 4025068:	00bfffc4 	movi	r2,-1
 402506c:	01000044 	movi	r4,1
 4025070:	d8800c15 	stw	r2,48(sp)
 4025074:	80c01015 	stw	r3,64(r16)
 4025078:	d9000b15 	stw	r4,44(sp)
 402507c:	d8800615 	stw	r2,24(sp)
 4025080:	d8002215 	stw	zero,136(sp)
 4025084:	003c1906 	br	40240ec <__flash_rwdata_start+0xffff3828>
 4025088:	193d2926 	beq	r3,r4,4024530 <__flash_rwdata_start+0xffff3c6c>
 402508c:	00c00f04 	movi	r3,60
 4025090:	1885c83a 	sub	r2,r3,r2
 4025094:	003d7b06 	br	4024684 <__flash_rwdata_start+0xffff3dc0>
 4025098:	000b883a 	mov	r5,zero
 402509c:	003b1006 	br	4023ce0 <__flash_rwdata_start+0xffff341c>

040250a0 <__sflush_r>:
 40250a0:	2880030b 	ldhu	r2,12(r5)
 40250a4:	defffb04 	addi	sp,sp,-20
 40250a8:	dcc00315 	stw	r19,12(sp)
 40250ac:	dc400115 	stw	r17,4(sp)
 40250b0:	dfc00415 	stw	ra,16(sp)
 40250b4:	dc800215 	stw	r18,8(sp)
 40250b8:	dc000015 	stw	r16,0(sp)
 40250bc:	10c0020c 	andi	r3,r2,8
 40250c0:	2823883a 	mov	r17,r5
 40250c4:	2027883a 	mov	r19,r4
 40250c8:	1800311e 	bne	r3,zero,4025190 <__sflush_r+0xf0>
 40250cc:	28c00117 	ldw	r3,4(r5)
 40250d0:	10820014 	ori	r2,r2,2048
 40250d4:	2880030d 	sth	r2,12(r5)
 40250d8:	00c04b0e 	bge	zero,r3,4025208 <__sflush_r+0x168>
 40250dc:	8a000a17 	ldw	r8,40(r17)
 40250e0:	40002326 	beq	r8,zero,4025170 <__sflush_r+0xd0>
 40250e4:	9c000017 	ldw	r16,0(r19)
 40250e8:	10c4000c 	andi	r3,r2,4096
 40250ec:	98000015 	stw	zero,0(r19)
 40250f0:	18004826 	beq	r3,zero,4025214 <__sflush_r+0x174>
 40250f4:	89801417 	ldw	r6,80(r17)
 40250f8:	10c0010c 	andi	r3,r2,4
 40250fc:	18000626 	beq	r3,zero,4025118 <__sflush_r+0x78>
 4025100:	88c00117 	ldw	r3,4(r17)
 4025104:	88800c17 	ldw	r2,48(r17)
 4025108:	30cdc83a 	sub	r6,r6,r3
 402510c:	10000226 	beq	r2,zero,4025118 <__sflush_r+0x78>
 4025110:	88800f17 	ldw	r2,60(r17)
 4025114:	308dc83a 	sub	r6,r6,r2
 4025118:	89400717 	ldw	r5,28(r17)
 402511c:	9809883a 	mov	r4,r19
 4025120:	000f883a 	mov	r7,zero
 4025124:	403ee83a 	callr	r8
 4025128:	00ffffc4 	movi	r3,-1
 402512c:	10c04426 	beq	r2,r3,4025240 <__sflush_r+0x1a0>
 4025130:	88c0030b 	ldhu	r3,12(r17)
 4025134:	89000417 	ldw	r4,16(r17)
 4025138:	88000115 	stw	zero,4(r17)
 402513c:	197dffcc 	andi	r5,r3,63487
 4025140:	8940030d 	sth	r5,12(r17)
 4025144:	89000015 	stw	r4,0(r17)
 4025148:	18c4000c 	andi	r3,r3,4096
 402514c:	18002c1e 	bne	r3,zero,4025200 <__sflush_r+0x160>
 4025150:	89400c17 	ldw	r5,48(r17)
 4025154:	9c000015 	stw	r16,0(r19)
 4025158:	28000526 	beq	r5,zero,4025170 <__sflush_r+0xd0>
 402515c:	88801004 	addi	r2,r17,64
 4025160:	28800226 	beq	r5,r2,402516c <__sflush_r+0xcc>
 4025164:	9809883a 	mov	r4,r19
 4025168:	40258080 	call	4025808 <_free_r>
 402516c:	88000c15 	stw	zero,48(r17)
 4025170:	0005883a 	mov	r2,zero
 4025174:	dfc00417 	ldw	ra,16(sp)
 4025178:	dcc00317 	ldw	r19,12(sp)
 402517c:	dc800217 	ldw	r18,8(sp)
 4025180:	dc400117 	ldw	r17,4(sp)
 4025184:	dc000017 	ldw	r16,0(sp)
 4025188:	dec00504 	addi	sp,sp,20
 402518c:	f800283a 	ret
 4025190:	2c800417 	ldw	r18,16(r5)
 4025194:	903ff626 	beq	r18,zero,4025170 <__flash_rwdata_start+0xffff48ac>
 4025198:	2c000017 	ldw	r16,0(r5)
 402519c:	108000cc 	andi	r2,r2,3
 40251a0:	2c800015 	stw	r18,0(r5)
 40251a4:	84a1c83a 	sub	r16,r16,r18
 40251a8:	1000131e 	bne	r2,zero,40251f8 <__sflush_r+0x158>
 40251ac:	28800517 	ldw	r2,20(r5)
 40251b0:	88800215 	stw	r2,8(r17)
 40251b4:	04000316 	blt	zero,r16,40251c4 <__sflush_r+0x124>
 40251b8:	003fed06 	br	4025170 <__flash_rwdata_start+0xffff48ac>
 40251bc:	90a5883a 	add	r18,r18,r2
 40251c0:	043feb0e 	bge	zero,r16,4025170 <__flash_rwdata_start+0xffff48ac>
 40251c4:	88800917 	ldw	r2,36(r17)
 40251c8:	89400717 	ldw	r5,28(r17)
 40251cc:	800f883a 	mov	r7,r16
 40251d0:	900d883a 	mov	r6,r18
 40251d4:	9809883a 	mov	r4,r19
 40251d8:	103ee83a 	callr	r2
 40251dc:	80a1c83a 	sub	r16,r16,r2
 40251e0:	00bff616 	blt	zero,r2,40251bc <__flash_rwdata_start+0xffff48f8>
 40251e4:	88c0030b 	ldhu	r3,12(r17)
 40251e8:	00bfffc4 	movi	r2,-1
 40251ec:	18c01014 	ori	r3,r3,64
 40251f0:	88c0030d 	sth	r3,12(r17)
 40251f4:	003fdf06 	br	4025174 <__flash_rwdata_start+0xffff48b0>
 40251f8:	0005883a 	mov	r2,zero
 40251fc:	003fec06 	br	40251b0 <__flash_rwdata_start+0xffff48ec>
 4025200:	88801415 	stw	r2,80(r17)
 4025204:	003fd206 	br	4025150 <__flash_rwdata_start+0xffff488c>
 4025208:	28c00f17 	ldw	r3,60(r5)
 402520c:	00ffb316 	blt	zero,r3,40250dc <__flash_rwdata_start+0xffff4818>
 4025210:	003fd706 	br	4025170 <__flash_rwdata_start+0xffff48ac>
 4025214:	89400717 	ldw	r5,28(r17)
 4025218:	000d883a 	mov	r6,zero
 402521c:	9809883a 	mov	r4,r19
 4025220:	01c00044 	movi	r7,1
 4025224:	403ee83a 	callr	r8
 4025228:	100d883a 	mov	r6,r2
 402522c:	00bfffc4 	movi	r2,-1
 4025230:	30801426 	beq	r6,r2,4025284 <__sflush_r+0x1e4>
 4025234:	8880030b 	ldhu	r2,12(r17)
 4025238:	8a000a17 	ldw	r8,40(r17)
 402523c:	003fae06 	br	40250f8 <__flash_rwdata_start+0xffff4834>
 4025240:	98c00017 	ldw	r3,0(r19)
 4025244:	183fba26 	beq	r3,zero,4025130 <__flash_rwdata_start+0xffff486c>
 4025248:	01000744 	movi	r4,29
 402524c:	19000626 	beq	r3,r4,4025268 <__sflush_r+0x1c8>
 4025250:	01000584 	movi	r4,22
 4025254:	19000426 	beq	r3,r4,4025268 <__sflush_r+0x1c8>
 4025258:	88c0030b 	ldhu	r3,12(r17)
 402525c:	18c01014 	ori	r3,r3,64
 4025260:	88c0030d 	sth	r3,12(r17)
 4025264:	003fc306 	br	4025174 <__flash_rwdata_start+0xffff48b0>
 4025268:	8880030b 	ldhu	r2,12(r17)
 402526c:	88c00417 	ldw	r3,16(r17)
 4025270:	88000115 	stw	zero,4(r17)
 4025274:	10bdffcc 	andi	r2,r2,63487
 4025278:	8880030d 	sth	r2,12(r17)
 402527c:	88c00015 	stw	r3,0(r17)
 4025280:	003fb306 	br	4025150 <__flash_rwdata_start+0xffff488c>
 4025284:	98800017 	ldw	r2,0(r19)
 4025288:	103fea26 	beq	r2,zero,4025234 <__flash_rwdata_start+0xffff4970>
 402528c:	00c00744 	movi	r3,29
 4025290:	10c00226 	beq	r2,r3,402529c <__sflush_r+0x1fc>
 4025294:	00c00584 	movi	r3,22
 4025298:	10ffd21e 	bne	r2,r3,40251e4 <__flash_rwdata_start+0xffff4920>
 402529c:	9c000015 	stw	r16,0(r19)
 40252a0:	0005883a 	mov	r2,zero
 40252a4:	003fb306 	br	4025174 <__flash_rwdata_start+0xffff48b0>

040252a8 <_fflush_r>:
 40252a8:	defffd04 	addi	sp,sp,-12
 40252ac:	dc000115 	stw	r16,4(sp)
 40252b0:	dfc00215 	stw	ra,8(sp)
 40252b4:	2021883a 	mov	r16,r4
